Certificate:
    Data:
        Version: 3 (0x2)
        Serial Number: 0 (0x0)
    Signature Algorithm: sha1WithRSAEncryption
        Issuer: C=VN, ST=Hanoi, L=Hanoi, O=UGroups JSC, OU=Domain Ureg.Asia Groups, CN=Ureg.Asia Groups JSC/emailAddress=info@ureg.asia
        Validity
            Not Before: Aug 12 05:48:12 2017 GMT
            Not After : Aug 12 05:48:12 2018 GMT
        Subject: C=VN, ST=Hanoi, L=Hanoi, O=UGroups JSC, OU=Domain Ureg.Asia Groups, CN=Ureg.Asia Groups JSC/emailAddress=info@ureg.asia
        Subject Public Key Info:
            Public Key Algorithm: rsaEncryption
                Public-Key: (4096 bit)
                Modulus:
                    00:b9:49:4c:ae:b2:22:27:74:8d:12:08:13:c1:6c:
                    42:a2:dd:60:90:cd:7a:91:19:4e:6a:95:2d:af:50:
                    5a:40:33:48:e6:d6:a2:05:a6:ec:d7:c8:0c:89:e0:
                    63:9e:31:5b:8e:b8:de:fb:5c:78:0d:34:7e:22:e3:
                    1b:9a:45:cc:90:d7:b3:07:33:1f:9d:c6:2f:30:62:
                    23:0d:ec:16:0a:83:1e:4b:ce:22:a3:46:44:c8:a1:
                    5a:b9:8f:bd:6d:7b:28:f7:f9:ee:36:66:8f:57:b6:
                    32:1c:1f:9e:ed:c2:a8:94:ec:ba:8d:be:24:17:1d:
                    45:ab:2b:49:a9:fc:da:d3:a1:80:8f:c3:a7:95:be:
                    ab:6a:ca:44:6e:0b:2f:0b:15:f4:9f:fb:ca:15:0b:
                    4a:7d:ce:d7:8a:d2:68:ca:b6:c6:48:f7:e0:c2:6a:
                    5a:34:eb:96:50:7e:46:d7:df:d2:4d:fd:b6:8a:ec:
                    a0:33:20:9e:ee:17:1e:3a:ae:bc:03:57:b1:bb:9b:
                    bd:4d:d2:21:8a:ee:a3:25:96:39:32:50:4c:71:c2:
                    8a:e7:14:17:ac:a0:18:42:1b:b0:cc:46:c9:07:65:
                    3e:a9:5c:fa:7d:f0:69:a6:0e:68:f3:a5:8c:d8:98:
                    8a:7d:fe:ec:77:f8:1c:79:b8:ec:e9:0e:af:24:90:
                    51:1f:c0:7c:f6:f1:dd:34:c0:6c:d0:d1:c4:5e:bf:
                    4e:fb:54:37:e2:7c:fe:e5:c6:7e:50:ee:0a:27:c5:
                    55:0e:56:ec:9d:84:7e:c8:47:60:00:50:8e:ea:20:
                    37:c4:80:3a:c1:12:ea:74:51:e4:ec:bb:5e:2a:58:
                    e1:c6:d6:cf:67:aa:ff:cb:8b:ef:4a:00:ca:76:50:
                    c9:6e:d4:be:17:0c:63:e4:ed:b9:32:54:29:64:02:
                    d1:00:4e:90:c5:33:c1:6f:c5:b8:27:25:f9:a1:0f:
                    0e:dd:4d:65:3c:73:1c:ef:9f:52:80:f1:b1:fd:99:
                    fc:a9:ca:1b:a6:72:c0:d0:18:8a:b8:7a:ed:17:77:
                    e0:7a:2a:c7:c5:2c:cb:64:a0:b5:ec:a6:75:c8:12:
                    8e:1d:49:b5:16:20:1f:61:cf:22:f8:df:78:21:07:
                    d0:4e:d6:48:57:62:fd:29:29:ab:12:73:10:78:74:
                    12:94:91:24:de:d9:f8:95:c1:cc:bd:cc:48:bc:4f:
                    c5:5f:db:9d:40:ab:73:39:9f:55:7e:73:c8:67:e6:
                    62:41:10:3a:b8:47:a5:2d:a4:7d:88:d0:6a:99:7e:
                    42:1b:48:f7:b6:b8:43:d0:c0:15:74:62:3f:67:aa:
                    0a:2a:e1:cf:8e:0b:88:a2:5c:18:ba:63:97:cc:17:
                    13:6e:43
                Exponent: 65537 (0x10001)
        X509v3 extensions:
            X509v3 Subject Key Identifier: 
                4F:89:D7:11:48:FB:95:F6:F8:54:82:09:E6:85:5E:DF:89:FD:F6:3B
            X509v3 Authority Key Identifier: 
                keyid:4F:89:D7:11:48:FB:95:F6:F8:54:82:09:E6:85:5E:DF:89:FD:F6:3B

            X509v3 Basic Constraints: 
                CA:TRUE
    Signature Algorithm: sha1WithRSAEncryption
         4f:68:5f:e7:f9:04:a7:6e:1c:92:0d:06:a8:ce:07:ff:95:58:
         95:39:e5:fc:16:e8:25:10:45:c1:b6:a6:2c:eb:7b:e5:8f:a5:
         18:fe:73:65:3d:5b:29:0f:4c:a9:93:85:39:6a:6e:e0:3e:0e:
         30:d0:52:51:ad:c0:9f:fa:d2:82:5e:b9:2f:65:9e:40:35:cc:
         90:67:f0:2f:32:6f:73:31:43:96:8b:ad:ad:27:f6:f8:bb:67:
         db:19:5c:ad:82:4a:62:25:d1:17:0e:d1:01:78:36:03:d8:9a:
         ff:52:52:60:64:8c:ed:68:20:8e:ed:98:59:ab:7e:77:98:e9:
         04:d8:56:80:da:69:f3:27:6e:f3:f4:ba:58:ac:06:a7:d1:6e:
         97:a3:a6:c9:a2:3b:5e:f1:38:d3:73:3c:72:57:89:f9:c5:88:
         ab:f3:44:b6:17:7a:bf:e1:ea:83:8b:ff:98:82:1e:ce:e3:2c:
         47:00:74:6e:6c:64:db:d4:8e:d3:21:f1:39:7b:0a:21:8d:48:
         d9:e3:71:b6:9a:c6:9f:72:c6:98:48:a4:a8:59:f1:4b:cc:b8:
         bc:bb:4b:bd:4a:0a:8a:39:50:dd:c0:1e:c9:4a:61:36:a4:ef:
         0e:85:e8:bc:9b:1e:ea:aa:e9:30:8e:b6:17:8a:96:66:59:f6:
         85:92:7f:b3:b1:89:31:f3:25:e8:74:2a:49:98:07:2d:72:d8:
         d1:d0:ee:7a:ab:18:54:e3:28:ff:18:49:fb:c9:8d:ee:7f:ca:
         ef:00:4d:6a:7d:d6:75:b6:79:79:e5:0a:43:38:b0:06:65:ec:
         98:d6:58:37:1a:e3:e8:0d:58:f9:46:a7:dc:8c:99:9a:ca:fc:
         0d:69:64:b3:ae:db:c9:da:82:b3:a2:db:f3:f8:ae:b5:3b:94:
         79:fc:b7:28:34:d0:a6:e4:9f:9e:9e:5e:e6:7f:92:a3:97:47:
         9f:cf:26:7b:07:9f:16:f7:cd:ce:e8:ce:ab:ef:bc:f5:31:a3:
         ab:e8:c0:a9:33:20:a9:cc:c8:a7:8e:c3:f2:0e:23:b0:d9:23:
         b6:ae:f9:12:cf:ec:c9:38:4d:ae:6f:11:1d:24:02:04:bb:67:
         8f:2e:de:e7:2d:82:70:89:79:2d:a8:d6:d4:95:9f:19:8b:90:
         59:cf:aa:41:38:dc:6c:89:8e:da:af:b5:11:8e:b8:cd:1a:40:
         0b:97:04:c6:c1:95:6a:5a:f7:d1:9d:a6:b8:3b:a1:db:77:ce:
         91:20:bf:24:16:eb:58:90:96:c4:d1:23:ef:5f:27:e0:c9:52:
         1b:40:58:0e:49:d8:e1:22:22:5a:7e:8f:30:d9:7d:ee:af:24:
         c8:8e:1e:92:c4:84:06:f1
-----BEGIN CERTIFICATE-----
MIIGEzCCA/ugAwIBAgIBADANBgkqhkiG9w0BAQUFADCBozELMAkGA1UEBhMCVk4x
DjAMBgNVBAgMBUhhbm9pMQ4wDAYDVQQHDAVIYW5vaTEUMBIGA1UECgwLVUdyb3Vw
cyBKU0MxIDAeBgNVBAsMF0RvbWFpbiBVcmVnLkFzaWEgR3JvdXBzMR0wGwYDVQQD
DBRVcmVnLkFzaWEgR3JvdXBzIEpTQzEdMBsGCSqGSIb3DQEJARYOaW5mb0B1cmVn
LmFzaWEwHhcNMTcwODEyMDU0ODEyWhcNMTgwODEyMDU0ODEyWjCBozELMAkGA1UE
BhMCVk4xDjAMBgNVBAgMBUhhbm9pMQ4wDAYDVQQHDAVIYW5vaTEUMBIGA1UECgwL
VUdyb3VwcyBKU0MxIDAeBgNVBAsMF0RvbWFpbiBVcmVnLkFzaWEgR3JvdXBzMR0w
GwYDVQQDDBRVcmVnLkFzaWEgR3JvdXBzIEpTQzEdMBsGCSqGSIb3DQEJARYOaW5m
b0B1cmVnLmFzaWEwggIiMA0GCSqGSIb3DQEBAQUAA4ICDwAwggIKAoICAQC5SUyu
siIndI0SCBPBbEKi3WCQzXqRGU5qlS2vUFpAM0jm1qIFpuzXyAyJ4GOeMVuOuN77
XHgNNH4i4xuaRcyQ17MHMx+dxi8wYiMN7BYKgx5LziKjRkTIoVq5j71teyj3+e42
Zo9XtjIcH57twqiU7LqNviQXHUWrK0mp/NrToYCPw6eVvqtqykRuCy8LFfSf+8oV
C0p9zteK0mjKtsZI9+DCalo065ZQfkbX39JN/baK7KAzIJ7uFx46rrwDV7G7m71N
0iGK7qMlljkyUExxwornFBesoBhCG7DMRskHZT6pXPp98GmmDmjzpYzYmIp9/ux3
+Bx5uOzpDq8kkFEfwHz28d00wGzQ0cRev077VDfifP7lxn5Q7gonxVUOVuydhH7I
R2AAUI7qIDfEgDrBEup0UeTsu14qWOHG1s9nqv/Li+9KAMp2UMlu1L4XDGPk7bky
VClkAtEATpDFM8FvxbgnJfmhDw7dTWU8cxzvn1KA8bH9mfypyhumcsDQGIq4eu0X
d+B6KsfFLMtkoLXspnXIEo4dSbUWIB9hzyL433ghB9BO1khXYv0pKasScxB4dBKU
kSTe2fiVwcy9zEi8T8Vf251Aq3M5n1V+c8hn5mJBEDq4R6UtpH2I0GqZfkIbSPe2
uEPQwBV0Yj9nqgoq4c+OC4iiXBi6Y5fMFxNuQwIDAQABo1AwTjAdBgNVHQ4EFgQU
T4nXEUj7lfb4VIIJ5oVe34n99jswHwYDVR0jBBgwFoAUT4nXEUj7lfb4VIIJ5oVe
34n99jswDAYDVR0TBAUwAwEB/zANBgkqhkiG9w0BAQUFAAOCAgEAT2hf5/kEp24c
kg0GqM4H/5VYlTnl/BboJRBFwbamLOt75Y+lGP5zZT1bKQ9MqZOFOWpu4D4OMNBS
Ua3An/rSgl65L2WeQDXMkGfwLzJvczFDloutrSf2+Ltn2xlcrYJKYiXRFw7RAXg2
A9ia/1JSYGSM7Wggju2YWat+d5jpBNhWgNpp8ydu8/S6WKwGp9Ful6OmyaI7XvE4
03M8cleJ+cWIq/NEthd6v+Hqg4v/mIIezuMsRwB0bmxk29SO0yHxOXsKIY1I2eNx
tprGn3LGmEikqFnxS8y4vLtLvUoKijlQ3cAeyUphNqTvDoXovJse6qrpMI62F4qW
Zln2hZJ/s7GJMfMl6HQqSZgHLXLY0dDueqsYVOMo/xhJ+8mN7n/K7wBNan3WdbZ5
eeUKQziwBmXsmNZYNxrj6A1Y+Uan3IyZmsr8DWlks67bydqCs6Lb8/iutTuUefy3
KDTQpuSfnp5e5n+So5dHn88mewefFvfNzujOq++89TGjq+jAqTMgqczIp47D8g4j
sNkjtq75Es/syThNrm8RHSQCBLtnjy7e5y2CcIl5LajW1JWfGYuQWc+qQTjcbImO
2q+1EY64zRpAC5cExsGValr30Z2muDuh23fOkSC/JBbrWJCWxNEj718n4MlSG0BY
DknY4SIiWn6PMNl97q8kyI4eksSEBvE=
-----END CERTIFICATE-----
