Certificate:
    Data:
        Version: 3 (0x2)
        Serial Number: 0 (0x0)
    Signature Algorithm: sha1WithRSAEncryption
        Issuer: C=VN, ST=Hanoi, L=Hanoi, O=UGroups JSC, OU=Domain Ureg.Asia Groups, CN=Ureg.Asia Groups JSC/emailAddress=info@ureg.asia
        Validity
            Not Before: Aug 12 05:50:14 2017 GMT
            Not After : Aug 12 05:50:14 2018 GMT
        Subject: C=VN, ST=Hanoi, L=Hanoi, O=UGroups JSC, OU=Domain Ureg.Asia Groups, CN=Ureg.Asia Groups JSC/emailAddress=info@ureg.asia
        Subject Public Key Info:
            Public Key Algorithm: rsaEncryption
                Public-Key: (4096 bit)
                Modulus:
                    00:d6:fb:30:cd:b0:a7:c1:c3:b9:9a:c9:0d:0d:eb:
                    c3:6d:7e:95:cc:40:cd:72:04:dc:fe:bf:f3:a9:c2:
                    3a:51:14:d4:38:a4:12:c6:4f:16:b5:15:50:86:26:
                    18:03:eb:a0:0c:46:46:17:c4:2c:c3:67:be:34:9b:
                    83:c4:29:3a:97:d5:5b:9f:d3:11:da:41:e8:b4:7b:
                    54:d9:da:58:23:ae:7d:9b:25:68:dc:24:80:c8:8f:
                    7c:84:f2:9d:76:c9:8a:c2:74:09:3c:4a:f3:4c:90:
                    4a:33:f1:d2:2e:61:fb:c5:33:32:b7:8b:e7:10:a1:
                    0b:5b:45:de:e0:6a:d6:cc:d1:f3:9c:b7:2d:99:d5:
                    57:6f:a6:ed:f2:7d:52:9c:78:61:34:94:b8:96:9d:
                    12:28:e5:9b:02:bf:f2:4e:e7:d4:5f:38:9f:f2:28:
                    f9:2c:56:51:82:04:b7:9f:88:dc:2e:16:b4:d3:6e:
                    0a:25:16:64:f6:94:1b:8f:d3:f8:c1:1f:1f:8d:bb:
                    5d:27:bd:34:89:f7:27:8d:35:27:08:4e:a5:3c:12:
                    6d:72:7f:d5:ba:07:5b:58:96:9d:d4:34:d5:e2:be:
                    a6:1f:80:3e:4c:0e:d9:9f:50:d5:cb:e4:a9:12:df:
                    b1:32:18:e8:56:e1:33:06:b3:27:72:df:d8:77:f6:
                    75:eb:9f:98:83:8e:38:2c:02:7c:a9:7b:7b:cb:5c:
                    35:0d:62:72:fb:0d:a0:4d:10:02:ca:8d:ba:6a:d7:
                    a2:17:75:18:90:2a:67:60:aa:bc:f3:9c:46:0f:32:
                    b1:38:22:d5:6e:93:fa:97:53:9a:a6:5a:26:88:fe:
                    50:9e:d9:20:cb:90:76:ea:bd:9c:74:2b:e4:7b:ee:
                    84:94:c4:86:d8:5c:bf:95:5e:56:87:80:a6:ab:34:
                    9e:41:aa:9a:5e:fc:22:b3:e6:ff:a3:b0:04:1b:a4:
                    1f:fd:ea:e4:f2:8b:ad:3d:ea:36:9c:51:5d:23:62:
                    e6:44:0c:39:84:8e:5e:51:c3:e5:84:10:51:e7:64:
                    c9:d3:1e:2f:14:ed:a6:4c:0c:6e:68:77:e3:11:69:
                    51:10:53:cf:d0:59:d3:c1:7b:29:28:51:61:bd:35:
                    f3:d0:7c:6d:67:ee:5a:db:05:b4:fc:94:1a:82:7f:
                    82:ef:85:c3:b8:39:71:a8:e8:8c:e0:06:e6:2f:29:
                    21:61:46:bd:99:5b:30:fe:b3:24:99:70:85:65:79:
                    aa:41:c6:6a:19:97:29:0d:08:98:9d:50:60:c1:a3:
                    31:b9:95:92:fb:cb:02:5c:d6:2b:30:9f:43:8e:16:
                    fa:36:04:2a:ff:be:50:41:85:03:7c:7d:37:61:c1:
                    c0:35:87
                Exponent: 65537 (0x10001)
        X509v3 extensions:
            X509v3 Subject Key Identifier: 
                FA:42:CB:5C:6D:16:3F:D9:09:61:6E:13:A7:46:E9:BC:38:D2:59:89
            X509v3 Authority Key Identifier: 
                keyid:FA:42:CB:5C:6D:16:3F:D9:09:61:6E:13:A7:46:E9:BC:38:D2:59:89

            X509v3 Basic Constraints: 
                CA:TRUE
    Signature Algorithm: sha1WithRSAEncryption
         a0:07:f1:9a:60:77:b5:12:2a:c2:e4:60:ab:24:68:30:c7:d5:
         d1:af:cb:4f:09:00:57:87:45:b1:11:af:ae:34:93:9f:04:d6:
         8d:5d:26:d0:a4:24:cd:c4:c9:34:ec:69:04:0a:e2:0a:ea:34:
         ec:3e:a8:63:02:97:04:7b:56:d0:07:1f:a3:05:95:54:06:40:
         ab:6c:c3:c5:63:b5:ed:5c:53:cc:10:f2:2b:71:74:20:46:bd:
         f3:95:13:70:86:47:2b:8c:6a:83:89:77:78:a6:71:3c:64:60:
         bd:f8:ff:fb:c4:92:2d:6d:bb:c8:d4:8d:89:69:b8:b3:36:0a:
         cf:fe:6b:00:7c:19:98:c1:dd:e1:ad:da:d7:7a:c6:fe:27:df:
         49:8c:42:9b:79:41:2b:7f:b6:0d:cf:d4:cc:6f:12:9c:c8:b8:
         21:f7:b1:e6:ba:56:5c:05:01:c1:f0:79:0c:65:54:03:af:7e:
         ed:ad:4c:ec:7e:d3:ee:58:89:08:6f:8c:3b:e5:9a:cc:24:74:
         9d:ec:4d:4f:55:8c:ed:4b:dc:5b:11:04:2b:a8:59:86:1a:09:
         05:5b:88:3d:11:13:08:29:09:16:45:c4:84:a0:58:62:54:f5:
         2e:74:ce:5f:f2:07:94:de:c7:23:31:90:b5:4a:cf:c7:16:01:
         51:e3:ad:eb:7f:69:9b:6a:29:86:f4:61:69:d7:43:92:d8:ce:
         10:c5:f8:97:08:be:b8:01:7c:29:24:d7:bb:b6:42:32:43:79:
         5d:4e:f2:2b:e6:7a:c7:df:32:2b:df:96:9d:a4:9b:ba:2e:c1:
         59:e6:3b:ae:8d:76:77:1f:73:e5:4d:94:0e:c8:e9:f7:66:86:
         1b:0d:04:02:0d:54:dd:ae:1f:af:44:03:b4:4c:a6:5f:e4:ce:
         a7:30:8a:23:f3:62:0f:ef:df:e4:9f:eb:ed:c3:7c:83:42:bf:
         e7:cd:e8:13:11:70:3d:ce:08:a5:78:5f:7f:8c:87:20:aa:43:
         f9:7d:9c:0d:53:09:50:33:82:e2:e3:fe:a8:b4:39:48:4b:cc:
         34:b0:cd:ec:b8:6d:a6:29:7e:67:18:f0:ed:3b:b0:ef:17:21:
         e0:f0:64:98:b7:ce:5a:19:12:e7:d4:e0:3b:d8:90:28:45:84:
         1f:cb:e9:8e:94:e1:a3:72:4e:ac:d2:00:91:02:43:d5:68:cf:
         76:89:25:7b:30:86:d5:13:a9:a3:12:bc:96:f4:5b:70:7a:8d:
         4f:99:1b:18:e9:ad:a5:84:db:61:9e:b1:41:dd:de:ce:57:b0:
         fe:c3:e0:b3:c6:05:ba:8a:c6:e7:52:c8:7c:a0:ff:83:35:88:
         fb:15:8e:64:14:b8:df:2e
-----BEGIN CERTIFICATE-----
MIIGEzCCA/ugAwIBAgIBADANBgkqhkiG9w0BAQUFADCBozELMAkGA1UEBhMCVk4x
DjAMBgNVBAgMBUhhbm9pMQ4wDAYDVQQHDAVIYW5vaTEUMBIGA1UECgwLVUdyb3Vw
cyBKU0MxIDAeBgNVBAsMF0RvbWFpbiBVcmVnLkFzaWEgR3JvdXBzMR0wGwYDVQQD
DBRVcmVnLkFzaWEgR3JvdXBzIEpTQzEdMBsGCSqGSIb3DQEJARYOaW5mb0B1cmVn
LmFzaWEwHhcNMTcwODEyMDU1MDE0WhcNMTgwODEyMDU1MDE0WjCBozELMAkGA1UE
BhMCVk4xDjAMBgNVBAgMBUhhbm9pMQ4wDAYDVQQHDAVIYW5vaTEUMBIGA1UECgwL
VUdyb3VwcyBKU0MxIDAeBgNVBAsMF0RvbWFpbiBVcmVnLkFzaWEgR3JvdXBzMR0w
GwYDVQQDDBRVcmVnLkFzaWEgR3JvdXBzIEpTQzEdMBsGCSqGSIb3DQEJARYOaW5m
b0B1cmVnLmFzaWEwggIiMA0GCSqGSIb3DQEBAQUAA4ICDwAwggIKAoICAQDW+zDN
sKfBw7mayQ0N68NtfpXMQM1yBNz+v/OpwjpRFNQ4pBLGTxa1FVCGJhgD66AMRkYX
xCzDZ740m4PEKTqX1Vuf0xHaQei0e1TZ2lgjrn2bJWjcJIDIj3yE8p12yYrCdAk8
SvNMkEoz8dIuYfvFMzK3i+cQoQtbRd7gatbM0fOcty2Z1Vdvpu3yfVKceGE0lLiW
nRIo5ZsCv/JO59RfOJ/yKPksVlGCBLefiNwuFrTTbgolFmT2lBuP0/jBHx+Nu10n
vTSJ9yeNNScITqU8Em1yf9W6B1tYlp3UNNXivqYfgD5MDtmfUNXL5KkS37EyGOhW
4TMGsydy39h39nXrn5iDjjgsAnype3vLXDUNYnL7DaBNEALKjbpq16IXdRiQKmdg
qrzznEYPMrE4ItVuk/qXU5qmWiaI/lCe2SDLkHbqvZx0K+R77oSUxIbYXL+VXlaH
gKarNJ5Bqppe/CKz5v+jsAQbpB/96uTyi6096jacUV0jYuZEDDmEjl5Rw+WEEFHn
ZMnTHi8U7aZMDG5od+MRaVEQU8/QWdPBeykoUWG9NfPQfG1n7lrbBbT8lBqCf4Lv
hcO4OXGo6IzgBuYvKSFhRr2ZWzD+sySZcIVleapBxmoZlykNCJidUGDBozG5lZL7
ywJc1iswn0OOFvo2BCr/vlBBhQN8fTdhwcA1hwIDAQABo1AwTjAdBgNVHQ4EFgQU
+kLLXG0WP9kJYW4Tp0bpvDjSWYkwHwYDVR0jBBgwFoAU+kLLXG0WP9kJYW4Tp0bp
vDjSWYkwDAYDVR0TBAUwAwEB/zANBgkqhkiG9w0BAQUFAAOCAgEAoAfxmmB3tRIq
wuRgqyRoMMfV0a/LTwkAV4dFsRGvrjSTnwTWjV0m0KQkzcTJNOxpBAriCuo07D6o
YwKXBHtW0AcfowWVVAZAq2zDxWO17VxTzBDyK3F0IEa985UTcIZHK4xqg4l3eKZx
PGRgvfj/+8SSLW27yNSNiWm4szYKz/5rAHwZmMHd4a3a13rG/iffSYxCm3lBK3+2
Dc/UzG8SnMi4Ifex5rpWXAUBwfB5DGVUA69+7a1M7H7T7liJCG+MO+WazCR0nexN
T1WM7UvcWxEEK6hZhhoJBVuIPRETCCkJFkXEhKBYYlT1LnTOX/IHlN7HIzGQtUrP
xxYBUeOt639pm2ophvRhaddDktjOEMX4lwi+uAF8KSTXu7ZCMkN5XU7yK+Z6x98y
K9+WnaSbui7BWeY7ro12dx9z5U2UDsjp92aGGw0EAg1U3a4fr0QDtEymX+TOpzCK
I/NiD+/f5J/r7cN8g0K/583oExFwPc4IpXhff4yHIKpD+X2cDVMJUDOC4uP+qLQ5
SEvMNLDN7Lhtpil+Zxjw7Tuw7xch4PBkmLfOWhkS59TgO9iQKEWEH8vpjpTho3JO
rNIAkQJD1WjPdoklezCG1ROpoxK8lvRbcHqNT5kbGOmtpYTbYZ6xQd3ezlew/sPg
s8YFuorG51LIfKD/gzWI+xWOZBS43y4=
-----END CERTIFICATE-----
