Certificate:
    Data:
        Version: 3 (0x2)
        Serial Number: 0 (0x0)
    Signature Algorithm: sha1WithRSAEncryption
        Issuer: C=VN, ST=Hanoi, L=Hanoi, O=UGroups JSC, OU=Domain Ureg.Asia Groups, CN=Ureg.Asia Groups JSC/emailAddress=info@ureg.asia
        Validity
            Not Before: Aug 12 10:12:28 2017 GMT
            Not After : Aug 12 10:12:28 2018 GMT
        Subject: C=VN, ST=Hanoi, L=Hanoi, O=UGroups JSC, OU=Domain Ureg.Asia Groups, CN=Ureg.Asia Groups JSC/emailAddress=info@ureg.asia
        Subject Public Key Info:
            Public Key Algorithm: rsaEncryption
                Public-Key: (4096 bit)
                Modulus:
                    00:c5:59:d7:fb:aa:0d:c4:48:bf:65:38:2c:ea:4b:
                    20:4d:13:df:4f:fc:76:20:1c:70:56:0b:88:01:5c:
                    e0:4c:04:06:cc:1c:6c:cc:4c:cd:db:76:8f:47:7d:
                    93:a1:71:f5:4f:6f:c8:32:8b:2f:37:1a:97:89:cb:
                    40:2b:e2:27:7b:0b:7e:8c:1e:36:4f:bd:0c:5c:2d:
                    68:88:19:84:04:65:9d:ef:8c:67:01:ba:f9:a0:68:
                    bf:03:ca:13:d4:13:74:ec:99:ae:bd:b5:b0:50:08:
                    93:53:2f:ce:7b:8d:ad:4e:6c:5e:bf:3d:84:4b:47:
                    7d:42:fb:59:bc:d1:1a:6e:e3:7f:f0:2e:23:ad:c7:
                    85:19:b3:a8:2d:ae:e3:90:93:b2:b8:d2:5e:67:ff:
                    15:68:7d:ae:9b:9c:3c:56:4e:68:9e:b8:ba:3d:90:
                    13:16:54:6d:53:17:44:47:26:6e:9a:74:96:38:46:
                    0d:73:ba:a9:83:84:22:5f:c3:2c:ed:fc:db:52:7a:
                    2a:4e:41:22:51:97:41:7c:48:7f:bd:7b:ae:d9:6d:
                    c0:71:19:db:f4:35:75:a0:4c:a6:a8:4c:11:7f:eb:
                    eb:51:fd:62:d9:4b:dd:81:29:5b:26:22:9f:51:64:
                    89:81:87:72:2e:02:46:46:70:95:0d:5e:eb:4d:98:
                    88:2b:b7:88:0b:92:05:e4:31:4b:6b:5a:d2:af:e9:
                    20:83:38:97:54:d3:33:42:16:88:55:dc:ba:9e:aa:
                    1c:8f:b6:b3:05:d7:7b:24:58:9b:59:38:bf:44:7c:
                    99:76:68:a0:ed:4b:67:5e:2b:61:41:05:8a:a7:e9:
                    09:d7:8d:99:c5:c4:21:3c:5b:38:ff:4a:e6:29:e4:
                    5d:42:ce:be:85:dd:13:d5:d4:a3:58:60:0a:72:6f:
                    0f:36:63:b0:2f:7a:e4:c5:10:cd:a1:59:34:ec:fc:
                    5c:0b:b4:2c:79:68:44:8e:57:cb:43:cf:16:0e:df:
                    34:d2:7d:2b:50:92:d8:d1:ab:6c:f1:85:82:38:e8:
                    6f:af:8f:de:63:19:dc:83:c5:c2:b5:5b:39:3d:bc:
                    67:6f:4d:22:2b:28:39:6a:3b:d7:dd:03:07:30:4e:
                    98:fb:40:77:3e:73:12:44:be:17:50:68:57:7d:ac:
                    a2:5b:f8:5d:b4:17:3b:12:01:1f:e0:e1:07:79:dd:
                    dc:ea:db:f6:eb:ab:89:38:77:37:52:3a:e0:fa:00:
                    6f:b6:8a:da:7f:29:4c:1b:1e:83:f3:01:7f:b9:35:
                    0d:fa:e9:f0:06:3e:4e:26:81:a0:ec:e8:5b:3d:b7:
                    e5:11:d9:a2:a8:f3:09:10:c9:8a:03:77:dc:94:92:
                    80:86:71
                Exponent: 65537 (0x10001)
        X509v3 extensions:
            X509v3 Subject Key Identifier: 
                DC:37:E3:54:E9:DD:3C:18:8C:BD:CA:76:2E:FF:59:DA:24:24:2A:AB
            X509v3 Authority Key Identifier: 
                keyid:DC:37:E3:54:E9:DD:3C:18:8C:BD:CA:76:2E:FF:59:DA:24:24:2A:AB

            X509v3 Basic Constraints: 
                CA:TRUE
    Signature Algorithm: sha1WithRSAEncryption
         bd:8b:37:91:b2:4f:05:75:57:24:32:99:8e:9d:16:6a:9a:c4:
         42:8d:6e:83:c9:04:b2:9f:6e:d9:97:90:58:d1:e7:49:ec:c9:
         41:7c:ff:d3:e2:28:e6:fc:e6:a6:51:6f:b2:df:ac:e8:21:cb:
         67:86:ae:0a:39:3f:84:b3:20:bf:3a:0f:ab:e5:cf:7d:57:54:
         d3:54:9a:13:73:a1:46:8d:76:9b:52:da:c5:c6:d1:98:69:08:
         ee:97:3b:b7:53:35:69:11:d8:5d:52:63:00:38:e6:f9:29:0c:
         e3:eb:5c:2b:eb:e0:f9:83:36:b4:4b:91:64:f0:74:c6:d1:51:
         e3:73:e0:10:ba:28:e4:ad:01:ae:10:2e:6a:b5:42:b0:1c:42:
         31:6c:b6:f5:6b:47:07:98:13:03:f1:1b:9b:b5:16:6e:df:63:
         ef:a7:5b:79:8a:21:e8:da:b6:40:44:12:1c:c1:fe:67:13:1b:
         3f:03:4e:fe:1d:e4:c5:6f:48:71:88:cc:24:f7:9b:3d:e8:78:
         e9:05:85:43:f2:04:b8:98:41:f9:47:9f:66:00:e3:2f:2b:b2:
         75:5b:1a:3c:69:e9:7c:06:d4:e4:cd:80:7f:bf:f6:43:19:1f:
         68:05:91:18:f0:ea:f9:c8:1b:4d:ef:6e:e3:4b:8b:e1:2c:91:
         cf:24:f6:3a:c9:26:6f:dc:6b:8f:67:9c:3f:de:bc:ca:8f:bd:
         59:09:cb:e6:52:84:06:c3:b2:86:98:02:0b:fc:f4:df:8a:b9:
         1a:37:14:2a:f7:b5:71:d8:63:36:ca:c1:e5:df:02:df:5b:f6:
         90:b5:22:1f:1e:2a:16:92:bc:8f:ce:ad:31:16:a5:f6:4a:bf:
         1c:75:f2:1e:84:31:f4:5f:da:4d:0c:5a:19:87:42:14:5b:a1:
         6e:85:b0:73:12:61:54:1b:e4:bf:63:2e:05:57:74:ea:55:87:
         d1:f3:ee:af:cd:7d:f4:8c:9d:07:66:6b:f5:b8:2c:a5:8a:5f:
         bc:02:d9:33:30:9c:52:66:fe:17:86:80:ee:e1:82:4e:44:bb:
         8c:5d:a2:31:da:4e:2f:22:ef:4d:95:20:8c:62:6d:6f:40:e6:
         f7:42:2e:da:d4:37:8b:40:75:31:12:c1:c6:a5:40:cc:ac:7d:
         73:94:b1:68:77:95:77:ea:d7:d5:71:f9:43:d4:14:90:d3:a4:
         e7:28:3f:5b:1d:1e:e1:f9:53:3a:3b:4c:e7:ad:dc:62:85:bd:
         27:51:db:3f:10:8a:84:3c:79:2a:4a:83:15:c4:04:8a:8d:1b:
         6e:74:45:1c:44:53:ca:96:e0:57:ea:16:43:d4:dc:08:4b:71:
         35:a7:cd:8f:6a:79:87:2f
-----BEGIN CERTIFICATE-----
MIIGEzCCA/ugAwIBAgIBADANBgkqhkiG9w0BAQUFADCBozELMAkGA1UEBhMCVk4x
DjAMBgNVBAgMBUhhbm9pMQ4wDAYDVQQHDAVIYW5vaTEUMBIGA1UECgwLVUdyb3Vw
cyBKU0MxIDAeBgNVBAsMF0RvbWFpbiBVcmVnLkFzaWEgR3JvdXBzMR0wGwYDVQQD
DBRVcmVnLkFzaWEgR3JvdXBzIEpTQzEdMBsGCSqGSIb3DQEJARYOaW5mb0B1cmVn
LmFzaWEwHhcNMTcwODEyMTAxMjI4WhcNMTgwODEyMTAxMjI4WjCBozELMAkGA1UE
BhMCVk4xDjAMBgNVBAgMBUhhbm9pMQ4wDAYDVQQHDAVIYW5vaTEUMBIGA1UECgwL
VUdyb3VwcyBKU0MxIDAeBgNVBAsMF0RvbWFpbiBVcmVnLkFzaWEgR3JvdXBzMR0w
GwYDVQQDDBRVcmVnLkFzaWEgR3JvdXBzIEpTQzEdMBsGCSqGSIb3DQEJARYOaW5m
b0B1cmVnLmFzaWEwggIiMA0GCSqGSIb3DQEBAQUAA4ICDwAwggIKAoICAQDFWdf7
qg3ESL9lOCzqSyBNE99P/HYgHHBWC4gBXOBMBAbMHGzMTM3bdo9HfZOhcfVPb8gy
iy83GpeJy0Ar4id7C36MHjZPvQxcLWiIGYQEZZ3vjGcBuvmgaL8DyhPUE3Tsma69
tbBQCJNTL857ja1ObF6/PYRLR31C+1m80Rpu43/wLiOtx4UZs6gtruOQk7K40l5n
/xVofa6bnDxWTmieuLo9kBMWVG1TF0RHJm6adJY4Rg1zuqmDhCJfwyzt/NtSeipO
QSJRl0F8SH+9e67ZbcBxGdv0NXWgTKaoTBF/6+tR/WLZS92BKVsmIp9RZImBh3Iu
AkZGcJUNXutNmIgrt4gLkgXkMUtrWtKv6SCDOJdU0zNCFohV3LqeqhyPtrMF13sk
WJtZOL9EfJl2aKDtS2deK2FBBYqn6QnXjZnFxCE8Wzj/SuYp5F1Czr6F3RPV1KNY
YApybw82Y7AveuTFEM2hWTTs/FwLtCx5aESOV8tDzxYO3zTSfStQktjRq2zxhYI4
6G+vj95jGdyDxcK1Wzk9vGdvTSIrKDlqO9fdAwcwTpj7QHc+cxJEvhdQaFd9rKJb
+F20FzsSAR/g4Qd53dzq2/brq4k4dzdSOuD6AG+2itp/KUwbHoPzAX+5NQ366fAG
Pk4mgaDs6Fs9t+UR2aKo8wkQyYoDd9yUkoCGcQIDAQABo1AwTjAdBgNVHQ4EFgQU
3DfjVOndPBiMvcp2Lv9Z2iQkKqswHwYDVR0jBBgwFoAU3DfjVOndPBiMvcp2Lv9Z
2iQkKqswDAYDVR0TBAUwAwEB/zANBgkqhkiG9w0BAQUFAAOCAgEAvYs3kbJPBXVX
JDKZjp0WaprEQo1ug8kEsp9u2ZeQWNHnSezJQXz/0+Io5vzmplFvst+s6CHLZ4au
Cjk/hLMgvzoPq+XPfVdU01SaE3OhRo12m1LaxcbRmGkI7pc7t1M1aRHYXVJjADjm
+SkM4+tcK+vg+YM2tEuRZPB0xtFR43PgELoo5K0BrhAuarVCsBxCMWy29WtHB5gT
A/Ebm7UWbt9j76dbeYoh6Nq2QEQSHMH+ZxMbPwNO/h3kxW9IcYjMJPebPeh46QWF
Q/IEuJhB+UefZgDjLyuydVsaPGnpfAbU5M2Af7/2QxkfaAWRGPDq+cgbTe9u40uL
4SyRzyT2Oskmb9xrj2ecP968yo+9WQnL5lKEBsOyhpgCC/z034q5GjcUKve1cdhj
NsrB5d8C31v2kLUiHx4qFpK8j86tMRal9kq/HHXyHoQx9F/aTQxaGYdCFFuhboWw
cxJhVBvkv2MuBVd06lWH0fPur8199IydB2Zr9bgspYpfvALZMzCcUmb+F4aA7uGC
TkS7jF2iMdpOLyLvTZUgjGJtb0Dm90Iu2tQ3i0B1MRLBxqVAzKx9c5SxaHeVd+rX
1XH5Q9QUkNOk5yg/Wx0e4flTOjtM563cYoW9J1HbPxCKhDx5KkqDFcQEio0bbnRF
HERTypbgV+oWQ9TcCEtxNafNj2p5hy8=
-----END CERTIFICATE-----
