Certificate:
    Data:
        Version: 3 (0x2)
        Serial Number: 0 (0x0)
    Signature Algorithm: sha1WithRSAEncryption
        Issuer: C=VN, ST=Hanoi, L=Hanoi, O=UGroups JSC, OU=Domain Ureg.Asia Groups, CN=Ureg.Asia Groups JSC/emailAddress=info@ureg.asia
        Validity
            Not Before: Aug 12 05:51:00 2017 GMT
            Not After : Aug 12 05:51:00 2018 GMT
        Subject: C=VN, ST=Hanoi, L=Hanoi, O=UGroups JSC, OU=Domain Ureg.Asia Groups, CN=Ureg.Asia Groups JSC/emailAddress=info@ureg.asia
        Subject Public Key Info:
            Public Key Algorithm: rsaEncryption
                Public-Key: (4096 bit)
                Modulus:
                    00:cd:51:12:b3:fa:90:4d:a9:ad:af:db:c6:a9:35:
                    d1:aa:8a:1e:e1:78:19:a5:92:fb:ed:53:7c:a6:26:
                    af:cd:37:bf:05:52:ae:39:0d:e6:6c:92:4e:70:4c:
                    f3:b1:99:db:2b:78:20:35:7f:b8:8c:70:12:35:b1:
                    81:bc:d9:4f:4e:1f:ab:8d:28:84:2e:ec:df:d2:1a:
                    80:47:5b:00:5e:bd:7a:de:94:b4:2f:a4:34:84:46:
                    5a:7d:06:28:60:16:40:eb:0a:08:ff:f7:0f:85:7b:
                    1e:9b:cc:2c:d2:f6:5e:d3:11:20:82:07:7c:d9:0b:
                    89:59:e5:88:99:b4:ed:66:f1:8c:97:d5:ea:76:3e:
                    2f:53:f3:e4:1f:e3:91:d5:58:f6:8f:f8:90:41:77:
                    82:64:7c:3f:dd:a3:88:bc:76:b6:d0:3a:f4:28:f5:
                    9b:99:88:9d:b4:38:c6:63:a5:2e:ec:1d:58:36:8e:
                    39:cc:34:57:f8:29:04:0d:35:ff:3f:3c:87:f8:8f:
                    17:cd:e2:77:bd:d2:eb:94:c1:18:bb:a0:a8:15:f3:
                    9a:1f:bf:bd:7d:eb:46:95:ac:93:06:33:0b:07:69:
                    d6:a1:7e:a8:2a:f2:1c:04:df:4a:30:71:94:0b:1c:
                    c1:bc:56:76:30:0c:54:5b:62:23:49:1a:7d:41:d3:
                    03:4e:18:21:7c:da:99:ef:b8:cb:fd:95:db:18:f6:
                    dd:0c:2e:35:3a:ec:5e:49:50:b2:85:77:cd:d1:3d:
                    3f:d1:83:cf:bb:25:27:62:1d:7b:92:7b:bc:aa:08:
                    4c:3e:aa:1d:66:b7:4a:24:04:6c:3a:e3:96:32:da:
                    da:34:e3:17:2a:b3:00:56:22:18:e2:0b:78:89:95:
                    ac:12:11:86:fa:c8:ce:bc:59:66:18:b8:3a:5f:37:
                    04:b4:e1:50:e9:85:f1:04:91:e9:26:ef:3f:d3:07:
                    ce:6d:7d:ba:9a:09:bf:a8:e7:c2:d5:1c:ec:21:a9:
                    9a:1f:9d:4b:b2:1a:22:a5:d2:53:f7:27:21:1f:91:
                    e8:cd:d5:ef:29:7d:e0:6a:7a:b3:98:34:df:b1:80:
                    6e:e7:9a:a2:ea:d8:17:3b:67:b6:ab:a1:da:46:62:
                    b0:01:ca:c8:4f:69:48:af:b8:a7:b0:54:68:a6:27:
                    a1:28:e1:a6:18:41:d0:9c:a3:23:c6:f0:f8:83:fd:
                    5f:72:55:88:ab:87:63:8f:08:8c:b9:e1:00:1d:34:
                    46:8f:b3:d2:87:8f:ec:bd:f1:3f:61:71:d7:59:d1:
                    67:5b:da:e1:16:6d:66:06:80:93:70:1b:77:d5:e1:
                    9d:47:5b:73:0a:7c:b3:bd:62:ab:de:de:9f:4a:11:
                    6c:3f:a9
                Exponent: 65537 (0x10001)
        X509v3 extensions:
            X509v3 Subject Key Identifier: 
                B6:4C:FA:F4:9F:A4:24:67:36:08:6B:05:77:3B:24:83:1F:CE:F4:56
            X509v3 Authority Key Identifier: 
                keyid:B6:4C:FA:F4:9F:A4:24:67:36:08:6B:05:77:3B:24:83:1F:CE:F4:56

            X509v3 Basic Constraints: 
                CA:TRUE
    Signature Algorithm: sha1WithRSAEncryption
         4a:c8:89:d0:d0:b3:9c:17:22:1a:2e:fd:5d:80:db:ef:e0:49:
         62:5c:1d:0a:dd:e5:b3:29:88:50:6e:65:54:0b:e9:19:6d:66:
         f0:80:e5:6d:9a:2f:f6:b9:7c:58:c5:ed:29:56:26:f3:a1:f3:
         16:02:60:ec:8e:77:79:eb:0f:94:74:72:e2:e4:97:17:ce:16:
         ff:d0:b7:6e:07:a0:f2:35:da:11:77:bd:66:16:4b:9b:16:1a:
         1c:e3:51:66:0b:86:87:0f:83:08:cf:66:91:34:e2:23:e6:c0:
         61:e4:59:f4:aa:77:d5:ff:80:69:78:ac:12:b9:fd:93:88:2a:
         32:32:c4:e8:b8:8d:da:85:54:4c:31:85:fa:46:a7:a6:ad:94:
         cd:2d:4e:5f:da:fd:31:f8:7b:56:22:90:32:b6:38:0f:dc:3c:
         f4:05:68:06:d0:cf:31:7d:53:fb:33:33:87:40:3f:b6:5e:74:
         ab:10:c3:d9:d6:0e:44:05:4c:d0:81:45:85:64:ef:28:f7:51:
         69:30:5b:7c:b6:84:6c:4b:1d:ca:cb:79:a9:bc:2a:eb:89:68:
         60:09:d9:e7:0a:2a:c8:51:8d:75:79:5f:ae:34:15:97:1b:e2:
         60:c4:4e:88:5f:c3:da:58:02:11:5b:a3:ad:01:3b:3f:28:fa:
         51:6b:ff:c1:51:15:44:0f:e6:7d:49:b4:bf:70:27:1f:97:95:
         6c:79:72:ab:23:7e:5d:39:e7:75:7d:94:8e:38:8a:5d:56:44:
         78:20:8a:75:7e:e1:37:56:a3:bc:b4:93:a9:c9:cf:64:c8:e3:
         6c:f3:2c:39:83:62:d5:4c:8b:9b:66:80:a4:0b:82:a6:24:77:
         c5:56:53:b4:4b:0b:95:2b:b9:ef:ea:b0:47:26:66:1f:b4:61:
         b1:73:be:6d:bc:de:da:c7:47:db:0d:7b:38:96:7e:92:93:4e:
         36:46:3e:3b:0a:03:93:f0:12:1e:e8:07:b5:d8:53:40:cc:6a:
         4a:de:d5:c6:e8:bb:1d:cb:0a:c5:a4:77:36:bb:8e:ec:ce:6a:
         34:ac:6f:44:99:57:6e:50:1f:b3:ee:f3:4f:de:8e:66:3a:0e:
         6b:81:c3:58:b2:f0:a7:f7:f1:24:f6:c3:7f:9d:83:d7:ef:25:
         a2:96:6a:18:db:6b:76:a3:87:56:8f:c6:9c:06:7f:42:fc:67:
         95:5c:88:f9:65:03:0d:6e:c2:83:02:35:52:72:af:d9:5d:28:
         80:99:63:c4:b1:86:33:81:7c:b5:f9:f2:19:56:87:6d:1f:05:
         1a:5f:7f:0a:9b:af:52:7a:0b:e8:75:67:17:cc:ed:88:9a:94:
         a3:c1:31:7d:d2:d0:51:d0
-----BEGIN CERTIFICATE-----
MIIGEzCCA/ugAwIBAgIBADANBgkqhkiG9w0BAQUFADCBozELMAkGA1UEBhMCVk4x
DjAMBgNVBAgMBUhhbm9pMQ4wDAYDVQQHDAVIYW5vaTEUMBIGA1UECgwLVUdyb3Vw
cyBKU0MxIDAeBgNVBAsMF0RvbWFpbiBVcmVnLkFzaWEgR3JvdXBzMR0wGwYDVQQD
DBRVcmVnLkFzaWEgR3JvdXBzIEpTQzEdMBsGCSqGSIb3DQEJARYOaW5mb0B1cmVn
LmFzaWEwHhcNMTcwODEyMDU1MTAwWhcNMTgwODEyMDU1MTAwWjCBozELMAkGA1UE
BhMCVk4xDjAMBgNVBAgMBUhhbm9pMQ4wDAYDVQQHDAVIYW5vaTEUMBIGA1UECgwL
VUdyb3VwcyBKU0MxIDAeBgNVBAsMF0RvbWFpbiBVcmVnLkFzaWEgR3JvdXBzMR0w
GwYDVQQDDBRVcmVnLkFzaWEgR3JvdXBzIEpTQzEdMBsGCSqGSIb3DQEJARYOaW5m
b0B1cmVnLmFzaWEwggIiMA0GCSqGSIb3DQEBAQUAA4ICDwAwggIKAoICAQDNURKz
+pBNqa2v28apNdGqih7heBmlkvvtU3ymJq/NN78FUq45DeZskk5wTPOxmdsreCA1
f7iMcBI1sYG82U9OH6uNKIQu7N/SGoBHWwBevXrelLQvpDSERlp9BihgFkDrCgj/
9w+Fex6bzCzS9l7TESCCB3zZC4lZ5YiZtO1m8YyX1ep2Pi9T8+Qf45HVWPaP+JBB
d4JkfD/do4i8drbQOvQo9ZuZiJ20OMZjpS7sHVg2jjnMNFf4KQQNNf8/PIf4jxfN
4ne90uuUwRi7oKgV85ofv71960aVrJMGMwsHadahfqgq8hwE30owcZQLHMG8VnYw
DFRbYiNJGn1B0wNOGCF82pnvuMv9ldsY9t0MLjU67F5JULKFd83RPT/Rg8+7JSdi
HXuSe7yqCEw+qh1mt0okBGw645Yy2to04xcqswBWIhjiC3iJlawSEYb6yM68WWYY
uDpfNwS04VDphfEEkekm7z/TB85tfbqaCb+o58LVHOwhqZofnUuyGiKl0lP3JyEf
kejN1e8pfeBqerOYNN+xgG7nmqLq2Bc7Z7arodpGYrAByshPaUivuKewVGimJ6Eo
4aYYQdCcoyPG8PiD/V9yVYirh2OPCIy54QAdNEaPs9KHj+y98T9hcddZ0Wdb2uEW
bWYGgJNwG3fV4Z1HW3MKfLO9Yqve3p9KEWw/qQIDAQABo1AwTjAdBgNVHQ4EFgQU
tkz69J+kJGc2CGsFdzskgx/O9FYwHwYDVR0jBBgwFoAUtkz69J+kJGc2CGsFdzsk
gx/O9FYwDAYDVR0TBAUwAwEB/zANBgkqhkiG9w0BAQUFAAOCAgEASsiJ0NCznBci
Gi79XYDb7+BJYlwdCt3lsymIUG5lVAvpGW1m8IDlbZov9rl8WMXtKVYm86HzFgJg
7I53eesPlHRy4uSXF84W/9C3bgeg8jXaEXe9ZhZLmxYaHONRZguGhw+DCM9mkTTi
I+bAYeRZ9Kp31f+AaXisErn9k4gqMjLE6LiN2oVUTDGF+kanpq2UzS1OX9r9Mfh7
ViKQMrY4D9w89AVoBtDPMX1T+zMzh0A/tl50qxDD2dYORAVM0IFFhWTvKPdRaTBb
fLaEbEsdyst5qbwq64loYAnZ5woqyFGNdXlfrjQVlxviYMROiF/D2lgCEVujrQE7
Pyj6UWv/wVEVRA/mfUm0v3AnH5eVbHlyqyN+XTnndX2UjjiKXVZEeCCKdX7hN1aj
vLSTqcnPZMjjbPMsOYNi1UyLm2aApAuCpiR3xVZTtEsLlSu57+qwRyZmH7RhsXO+
bbze2sdH2w17OJZ+kpNONkY+OwoDk/ASHugHtdhTQMxqSt7Vxui7HcsKxaR3NruO
7M5qNKxvRJlXblAfs+7zT96OZjoOa4HDWLLwp/fxJPbDf52D1+8lopZqGNtrdqOH
Vo/GnAZ/QvxnlVyI+WUDDW7CgwI1UnKv2V0ogJljxLGGM4F8tfnyGVaHbR8FGl9/
CpuvUnoL6HVnF8ztiJqUo8ExfdLQUdA=
-----END CERTIFICATE-----
