Certificate:
    Data:
        Version: 3 (0x2)
        Serial Number: 0 (0x0)
    Signature Algorithm: sha1WithRSAEncryption
        Issuer: C=VN, ST=Hanoi, L=Hanoi, O=UGroups JSC, OU=Domain Ureg.Asia Groups, CN=Ureg.Asia Groups JSC/emailAddress=info@ureg.asia
        Validity
            Not Before: Aug 12 05:47:25 2017 GMT
            Not After : Aug 12 05:47:25 2018 GMT
        Subject: C=VN, ST=Hanoi, L=Hanoi, O=UGroups JSC, OU=Domain Ureg.Asia Groups, CN=Ureg.Asia Groups JSC/emailAddress=info@ureg.asia
        Subject Public Key Info:
            Public Key Algorithm: rsaEncryption
                Public-Key: (4096 bit)
                Modulus:
                    00:be:22:2b:65:8b:cf:a2:18:3b:3d:12:de:20:ab:
                    a0:b9:e8:b7:b8:26:7a:a0:27:2d:ec:f4:59:c3:e7:
                    36:ab:86:45:d3:61:c0:1b:fe:6d:ee:0c:d6:88:03:
                    68:58:13:1c:a7:ca:7b:99:1a:77:e9:6d:8d:f3:fb:
                    9a:3a:b9:53:53:86:0d:dd:21:a5:a6:b1:b3:b1:0a:
                    07:24:03:57:59:35:bd:b2:a2:1e:33:c6:c0:20:31:
                    e0:56:e9:fe:d1:2f:70:19:f4:49:6f:6f:fe:02:34:
                    0f:96:cb:de:61:75:f6:77:11:01:1a:e0:14:8c:fa:
                    da:b6:2f:6e:b7:60:90:67:b4:b9:13:b1:91:56:1e:
                    7b:9d:98:e0:1e:03:07:33:7b:2b:ff:9e:83:f4:5a:
                    2a:b8:2b:cd:dd:18:32:b6:e5:12:80:a8:9b:2f:24:
                    34:18:68:73:95:60:02:a3:e5:77:48:a2:d1:a3:fe:
                    9e:4a:d1:3e:d3:5b:a1:96:6f:96:71:dc:9c:30:e1:
                    4a:ed:4d:5a:6b:c8:6e:57:2a:e9:37:ea:87:63:5e:
                    1c:97:9f:17:b0:dd:c2:a7:2c:69:f0:11:28:64:91:
                    4e:4d:99:37:65:cf:be:9c:29:b6:6c:85:49:44:ca:
                    d2:02:bc:b4:d8:c4:12:ff:a2:ef:4b:d5:99:56:d4:
                    cf:0d:70:d0:fa:be:ef:71:d7:de:8a:75:1e:d9:b7:
                    67:58:42:b1:46:6e:43:fc:86:66:2d:6c:c3:4b:b7:
                    29:ed:73:17:bc:63:d2:57:0c:c0:05:05:8c:67:41:
                    71:6c:5f:46:a0:59:0d:07:67:cd:9d:55:68:05:37:
                    78:c6:0c:7d:8a:1a:54:0c:cf:41:7f:1d:dd:e2:67:
                    59:9f:7a:c6:6a:08:dd:4b:23:d7:4e:89:45:d3:c2:
                    d9:e4:b6:4d:3f:cd:81:b9:3e:db:14:ed:f2:7c:fd:
                    d9:50:a0:19:b0:a2:eb:a0:ae:93:9b:e7:63:be:2f:
                    73:27:9c:d8:0d:61:99:15:d8:7a:42:5f:85:b0:a9:
                    1e:a6:70:d6:f3:55:d2:47:64:d0:45:31:2e:44:27:
                    aa:c6:0b:67:9a:c1:c7:18:56:76:69:31:17:44:57:
                    25:b3:16:c0:47:2b:27:e2:f9:8a:c8:f2:3c:8a:46:
                    73:8b:07:ad:79:8f:29:66:11:c5:da:95:16:66:d6:
                    c8:aa:d5:2e:bf:a2:91:0c:58:59:89:f1:72:87:1b:
                    78:07:d3:6f:36:5c:61:6f:70:bb:9b:86:b6:8d:0c:
                    7f:72:6c:5d:1d:c8:da:8e:35:83:2a:40:d2:01:12:
                    ed:e4:0b:1a:aa:d7:65:15:a1:79:d5:cb:3d:a4:59:
                    35:54:39
                Exponent: 65537 (0x10001)
        X509v3 extensions:
            X509v3 Subject Key Identifier: 
                5F:44:7C:1A:C3:4B:85:DE:76:21:92:1B:01:B5:AF:89:14:A7:EF:48
            X509v3 Authority Key Identifier: 
                keyid:5F:44:7C:1A:C3:4B:85:DE:76:21:92:1B:01:B5:AF:89:14:A7:EF:48

            X509v3 Basic Constraints: 
                CA:TRUE
    Signature Algorithm: sha1WithRSAEncryption
         59:2a:44:21:a7:bd:aa:c5:41:10:f0:b3:af:a1:b2:f7:d7:58:
         8b:c9:d2:f9:29:85:f8:ed:43:f1:3c:e9:26:4a:42:cc:d8:e2:
         d8:e1:99:21:a3:93:1e:dd:04:11:21:bb:4c:6c:e1:82:e3:85:
         5c:71:67:9f:86:36:b0:ed:f9:08:78:1c:85:d2:d3:c1:bb:14:
         e2:6a:cd:4b:ff:db:c0:41:af:62:b9:65:36:0c:bb:4d:1d:8e:
         ba:03:a9:a8:48:83:c5:95:4e:92:14:cd:70:f4:f8:86:2e:1d:
         46:57:1c:cd:6b:e6:27:e3:e1:2c:6d:73:69:f8:40:0c:82:51:
         1c:dd:d7:7e:c3:0e:33:b9:5a:60:f3:58:81:99:4e:5c:94:83:
         89:48:e0:a4:e5:48:83:12:00:15:6b:ba:8d:c4:7f:53:86:f1:
         b4:a6:f7:6d:ca:4b:30:68:fe:c9:3b:fd:2a:59:9c:e5:63:27:
         e6:37:ab:2c:e5:92:2c:60:c1:03:1f:a7:e4:b8:1f:10:f5:ff:
         bc:af:05:11:ef:40:c1:c7:aa:80:f2:96:f1:be:92:01:30:43:
         b5:87:75:3e:c0:d6:6a:ef:77:82:dc:71:81:9e:9a:55:a6:1e:
         42:c9:9b:99:a2:84:de:a3:74:fb:c1:2a:7a:e8:e7:65:15:be:
         9e:49:ab:49:ae:b0:bf:47:4e:6d:13:39:9c:48:92:99:48:57:
         3b:13:7a:0e:dd:2d:0f:6a:eb:d3:55:10:ae:b1:00:e2:44:6b:
         34:f8:af:3b:83:2d:21:56:6e:f3:e9:e7:8f:94:99:03:1a:24:
         5d:a3:7b:e2:4f:0b:f6:39:b1:d7:f0:9a:7e:51:f0:50:2c:96:
         71:55:fa:fe:31:e7:d5:e8:95:21:e3:56:7c:57:fb:eb:5d:62:
         dc:96:b1:fa:bc:7d:a6:17:fe:30:85:a2:c2:38:6e:2e:14:78:
         53:24:ba:35:36:0e:c1:aa:75:1c:75:52:ef:e6:23:bb:ca:88:
         77:3c:c0:46:b1:51:0c:ef:86:28:d2:3f:48:6c:81:b0:ec:1e:
         c4:81:52:13:4b:40:86:b4:3b:66:34:2b:e1:23:7c:db:49:0f:
         5f:7c:54:63:52:73:df:83:34:e4:63:fb:d0:a1:5d:75:64:53:
         ea:cd:99:fd:ee:95:af:29:c8:6f:8e:5c:86:10:1e:51:43:44:
         78:3a:2a:f6:df:83:01:d1:ed:fa:38:59:17:84:1e:f6:f2:f1:
         60:ce:ca:75:b4:d7:c2:06:9b:5f:be:93:cc:84:eb:58:d0:96:
         c2:66:ee:bc:93:12:f5:e9:8d:8a:56:43:4b:c0:9d:2e:b2:c3:
         a4:b7:13:a0:60:72:53:d4
-----BEGIN CERTIFICATE-----
MIIGEzCCA/ugAwIBAgIBADANBgkqhkiG9w0BAQUFADCBozELMAkGA1UEBhMCVk4x
DjAMBgNVBAgMBUhhbm9pMQ4wDAYDVQQHDAVIYW5vaTEUMBIGA1UECgwLVUdyb3Vw
cyBKU0MxIDAeBgNVBAsMF0RvbWFpbiBVcmVnLkFzaWEgR3JvdXBzMR0wGwYDVQQD
DBRVcmVnLkFzaWEgR3JvdXBzIEpTQzEdMBsGCSqGSIb3DQEJARYOaW5mb0B1cmVn
LmFzaWEwHhcNMTcwODEyMDU0NzI1WhcNMTgwODEyMDU0NzI1WjCBozELMAkGA1UE
BhMCVk4xDjAMBgNVBAgMBUhhbm9pMQ4wDAYDVQQHDAVIYW5vaTEUMBIGA1UECgwL
VUdyb3VwcyBKU0MxIDAeBgNVBAsMF0RvbWFpbiBVcmVnLkFzaWEgR3JvdXBzMR0w
GwYDVQQDDBRVcmVnLkFzaWEgR3JvdXBzIEpTQzEdMBsGCSqGSIb3DQEJARYOaW5m
b0B1cmVnLmFzaWEwggIiMA0GCSqGSIb3DQEBAQUAA4ICDwAwggIKAoICAQC+Iitl
i8+iGDs9Et4gq6C56Le4JnqgJy3s9FnD5zarhkXTYcAb/m3uDNaIA2hYExynynuZ
GnfpbY3z+5o6uVNThg3dIaWmsbOxCgckA1dZNb2yoh4zxsAgMeBW6f7RL3AZ9Elv
b/4CNA+Wy95hdfZ3EQEa4BSM+tq2L263YJBntLkTsZFWHnudmOAeAwczeyv/noP0
Wiq4K83dGDK25RKAqJsvJDQYaHOVYAKj5XdIotGj/p5K0T7TW6GWb5Zx3Jww4Urt
TVpryG5XKuk36odjXhyXnxew3cKnLGnwEShkkU5NmTdlz76cKbZshUlEytICvLTY
xBL/ou9L1ZlW1M8NcND6vu9x196KdR7Zt2dYQrFGbkP8hmYtbMNLtyntcxe8Y9JX
DMAFBYxnQXFsX0agWQ0HZ82dVWgFN3jGDH2KGlQMz0F/Hd3iZ1mfesZqCN1LI9dO
iUXTwtnktk0/zYG5PtsU7fJ8/dlQoBmwouugrpOb52O+L3MnnNgNYZkV2HpCX4Ww
qR6mcNbzVdJHZNBFMS5EJ6rGC2eawccYVnZpMRdEVyWzFsBHKyfi+YrI8jyKRnOL
B615jylmEcXalRZm1siq1S6/opEMWFmJ8XKHG3gH0282XGFvcLubhraNDH9ybF0d
yNqONYMqQNIBEu3kCxqq12UVoXnVyz2kWTVUOQIDAQABo1AwTjAdBgNVHQ4EFgQU
X0R8GsNLhd52IZIbAbWviRSn70gwHwYDVR0jBBgwFoAUX0R8GsNLhd52IZIbAbWv
iRSn70gwDAYDVR0TBAUwAwEB/zANBgkqhkiG9w0BAQUFAAOCAgEAWSpEIae9qsVB
EPCzr6Gy99dYi8nS+SmF+O1D8TzpJkpCzNji2OGZIaOTHt0EESG7TGzhguOFXHFn
n4Y2sO35CHgchdLTwbsU4mrNS//bwEGvYrllNgy7TR2OugOpqEiDxZVOkhTNcPT4
hi4dRlcczWvmJ+PhLG1zafhADIJRHN3XfsMOM7laYPNYgZlOXJSDiUjgpOVIgxIA
FWu6jcR/U4bxtKb3bcpLMGj+yTv9Klmc5WMn5jerLOWSLGDBAx+n5LgfEPX/vK8F
Ee9AwceqgPKW8b6SATBDtYd1PsDWau93gtxxgZ6aVaYeQsmbmaKE3qN0+8Eqeujn
ZRW+nkmrSa6wv0dObRM5nEiSmUhXOxN6Dt0tD2rr01UQrrEA4kRrNPivO4MtIVZu
8+nnj5SZAxokXaN74k8L9jmx1/CaflHwUCyWcVX6/jHn1eiVIeNWfFf7611i3Jax
+rx9phf+MIWiwjhuLhR4UyS6NTYOwap1HHVS7+Yju8qIdzzARrFRDO+GKNI/SGyB
sOwexIFSE0tAhrQ7ZjQr4SN820kPX3xUY1Jz34M05GP70KFddWRT6s2Z/e6VrynI
b45chhAeUUNEeDoq9t+DAdHt+jhZF4Qe9vLxYM7KdbTXwgabX76TzITrWNCWwmbu
vJMS9emNilZDS8CdLrLDpLcToGByU9Q=
-----END CERTIFICATE-----
