Certificate:
    Data:
        Version: 3 (0x2)
        Serial Number: 0 (0x0)
    Signature Algorithm: sha1WithRSAEncryption
        Issuer: C=VN, ST=Hanoi, L=Hanoi, O=UGroups JSC, OU=Domain Ureg.Asia Groups, CN=Ureg.Asia Groups JSC/emailAddress=info@ureg.asia
        Validity
            Not Before: Aug 12 05:45:57 2017 GMT
            Not After : Aug 12 05:45:57 2018 GMT
        Subject: C=VN, ST=Hanoi, L=Hanoi, O=UGroups JSC, OU=Domain Ureg.Asia Groups, CN=Ureg.Asia Groups JSC/emailAddress=info@ureg.asia
        Subject Public Key Info:
            Public Key Algorithm: rsaEncryption
                Public-Key: (4096 bit)
                Modulus:
                    00:ac:e2:1b:d3:e5:5e:8b:5c:4a:a5:a5:6d:e0:2c:
                    5e:d0:98:4b:7a:1c:8e:53:6b:6c:5d:b5:25:4f:80:
                    17:b6:ea:5b:f1:b3:58:7e:45:d0:23:fe:2b:cc:52:
                    18:e6:d5:94:a2:21:32:b9:09:7e:38:f7:33:b5:f3:
                    5d:1f:03:e5:cb:78:b8:ab:18:d3:fc:c0:93:3c:ba:
                    29:07:31:fd:46:8b:11:ce:e8:a2:9a:b5:ee:a4:ca:
                    75:42:0f:5c:3e:71:53:10:d4:e3:aa:6d:79:3e:7c:
                    01:17:82:3e:d9:f7:fb:14:47:4c:0f:e2:07:cb:be:
                    52:3b:9a:ab:af:c3:df:39:2d:6a:1e:91:62:27:64:
                    1b:c4:01:2b:e1:60:5b:92:e8:90:46:eb:3f:a5:14:
                    30:f0:c1:5c:24:77:9c:63:58:30:90:3b:5a:0e:8d:
                    40:78:bf:a6:66:b5:10:1b:14:20:82:2b:84:64:b4:
                    b4:19:1d:0f:37:a6:32:0a:e2:8c:78:7d:f6:2b:87:
                    ac:72:87:88:96:e8:e6:0f:3a:b9:7e:d9:a4:01:d5:
                    72:37:42:09:13:3e:64:b4:e0:4e:e1:fa:4e:d5:d6:
                    ae:54:ac:3d:8a:cf:ab:2f:f8:39:99:84:92:a5:a1:
                    b4:17:c5:5e:6c:57:49:1b:a4:65:d4:9d:2f:12:76:
                    41:13:8a:1c:ed:27:31:c1:31:e2:4f:03:05:f1:dc:
                    c6:e6:52:95:2c:6a:97:8c:cb:ce:67:1a:a7:e3:3e:
                    75:a1:50:43:19:83:53:7f:89:fd:c8:6b:c5:c3:9f:
                    fd:6d:d1:3d:e4:84:ce:f4:48:4c:cd:df:73:39:17:
                    fe:1f:1a:e2:3b:7c:2c:2c:34:74:01:a2:30:16:1d:
                    68:c0:a6:d0:30:08:68:60:2a:5a:17:a7:bb:05:1a:
                    0e:3c:ff:26:01:80:90:df:d9:25:5d:3e:3e:4a:87:
                    4a:8c:48:bb:62:85:de:ce:df:32:e5:12:06:1d:c0:
                    8a:5f:fb:6f:50:b5:8c:4a:d0:c6:54:14:b8:dc:dc:
                    bc:70:15:93:da:fa:e2:71:9c:d9:9c:10:b7:8a:85:
                    a9:f4:50:5e:b9:31:ea:9f:c1:78:3e:c9:b8:25:8f:
                    8c:b8:26:74:00:88:90:40:ac:fc:98:8d:0a:c6:83:
                    35:11:b2:da:6f:7c:38:4a:53:5a:8b:0c:59:45:c5:
                    29:73:5c:43:95:49:ff:3d:08:fd:14:85:a5:30:ed:
                    4b:3b:21:9e:00:4b:00:7d:cc:69:b8:4a:fd:96:49:
                    e0:e3:e7:1b:db:d7:66:d1:ef:01:0b:07:57:80:b5:
                    b3:4f:7d:66:dc:56:9c:2b:1f:d9:c3:4c:bf:4a:7b:
                    25:e2:83
                Exponent: 65537 (0x10001)
        X509v3 extensions:
            X509v3 Subject Key Identifier: 
                C0:3C:3B:60:CB:1F:BE:B0:06:94:A4:B2:EC:71:C0:83:0C:8E:44:16
            X509v3 Authority Key Identifier: 
                keyid:C0:3C:3B:60:CB:1F:BE:B0:06:94:A4:B2:EC:71:C0:83:0C:8E:44:16

            X509v3 Basic Constraints: 
                CA:TRUE
    Signature Algorithm: sha1WithRSAEncryption
         6c:f1:8b:cf:7a:56:71:2f:e5:21:d6:e3:ee:7e:b4:82:93:0d:
         0e:1f:3f:50:2e:fe:c0:cd:0a:ef:73:ac:64:a4:d4:83:a6:98:
         6f:0e:9c:45:57:44:f9:20:57:1c:d8:cc:60:e4:7c:88:11:30:
         81:a3:9b:14:fb:17:21:e3:ce:b4:e0:34:a3:0d:7e:6d:2d:d9:
         0f:eb:46:2e:2c:9d:37:d9:82:3c:30:2d:ec:b3:c3:c5:96:c3:
         0e:4f:ae:fd:ee:d8:18:97:0a:80:55:1d:05:23:75:b1:40:b6:
         a4:83:81:cb:a5:da:d1:91:de:af:40:fb:2c:00:24:1d:61:e0:
         e4:6e:86:a7:c5:4e:25:f6:9c:fa:97:fb:96:af:af:bd:8d:30:
         51:6a:1b:38:7d:60:41:3d:b9:eb:cd:55:79:97:eb:01:3f:fe:
         d6:b3:1d:30:05:5f:ef:98:48:7c:97:c0:33:90:ea:8e:33:e1:
         43:18:b8:c3:ba:85:d6:57:1b:f9:13:e5:9d:cd:c1:42:a9:d2:
         03:46:d7:a8:61:82:4a:29:65:0f:07:ca:49:ac:15:32:86:61:
         45:42:b0:56:21:52:31:4d:6a:77:52:bc:af:ab:da:45:6b:4e:
         3f:23:3d:cc:20:3a:7f:a3:08:c5:26:84:0f:81:ef:6b:48:9f:
         57:18:57:bd:e1:62:ad:d2:81:03:dd:57:fb:ba:ba:44:85:37:
         51:c7:1d:54:06:f0:93:bb:81:ed:32:03:93:f1:53:9e:10:bb:
         fb:39:06:7c:13:98:82:e9:28:75:dc:29:3e:1e:db:b3:f9:c5:
         1e:bb:f5:df:80:aa:68:c9:95:22:b2:35:7a:18:98:d0:90:b2:
         ac:2d:ae:2a:56:5a:59:26:54:ff:4a:76:64:5d:52:ad:0c:b6:
         fa:ee:99:83:a7:fb:e7:b8:ae:9e:fc:4f:7a:02:99:34:96:51:
         88:bf:03:f8:89:04:57:48:ca:2f:ff:0b:ef:14:f6:81:9b:e4:
         63:b4:0f:d5:7d:43:5f:41:ad:1b:5b:07:71:8d:ba:fe:48:07:
         af:67:21:26:dc:4b:82:3c:67:d3:b5:c6:62:a2:24:48:01:8b:
         60:6b:25:2b:76:2d:13:12:f7:41:e8:5b:3b:e4:97:36:37:b9:
         f9:87:ee:40:54:9d:4b:c5:ea:25:b9:a0:31:b7:42:96:09:54:
         c9:39:7a:d9:28:a0:42:5f:29:d4:50:6f:ae:6e:5e:01:51:e7:
         23:4a:6b:70:85:de:9b:df:a1:d1:1b:a5:15:b6:16:23:4a:60:
         09:fa:c5:75:9f:37:f7:e0:13:de:09:89:b3:c7:18:e4:72:ef:
         42:3e:7e:1e:66:dd:de:ce
-----BEGIN CERTIFICATE-----
MIIGEzCCA/ugAwIBAgIBADANBgkqhkiG9w0BAQUFADCBozELMAkGA1UEBhMCVk4x
DjAMBgNVBAgMBUhhbm9pMQ4wDAYDVQQHDAVIYW5vaTEUMBIGA1UECgwLVUdyb3Vw
cyBKU0MxIDAeBgNVBAsMF0RvbWFpbiBVcmVnLkFzaWEgR3JvdXBzMR0wGwYDVQQD
DBRVcmVnLkFzaWEgR3JvdXBzIEpTQzEdMBsGCSqGSIb3DQEJARYOaW5mb0B1cmVn
LmFzaWEwHhcNMTcwODEyMDU0NTU3WhcNMTgwODEyMDU0NTU3WjCBozELMAkGA1UE
BhMCVk4xDjAMBgNVBAgMBUhhbm9pMQ4wDAYDVQQHDAVIYW5vaTEUMBIGA1UECgwL
VUdyb3VwcyBKU0MxIDAeBgNVBAsMF0RvbWFpbiBVcmVnLkFzaWEgR3JvdXBzMR0w
GwYDVQQDDBRVcmVnLkFzaWEgR3JvdXBzIEpTQzEdMBsGCSqGSIb3DQEJARYOaW5m
b0B1cmVnLmFzaWEwggIiMA0GCSqGSIb3DQEBAQUAA4ICDwAwggIKAoICAQCs4hvT
5V6LXEqlpW3gLF7QmEt6HI5Ta2xdtSVPgBe26lvxs1h+RdAj/ivMUhjm1ZSiITK5
CX449zO1810fA+XLeLirGNP8wJM8uikHMf1GixHO6KKate6kynVCD1w+cVMQ1OOq
bXk+fAEXgj7Z9/sUR0wP4gfLvlI7mquvw985LWoekWInZBvEASvhYFuS6JBG6z+l
FDDwwVwkd5xjWDCQO1oOjUB4v6ZmtRAbFCCCK4RktLQZHQ83pjIK4ox4ffYrh6xy
h4iW6OYPOrl+2aQB1XI3QgkTPmS04E7h+k7V1q5UrD2Kz6sv+DmZhJKlobQXxV5s
V0kbpGXUnS8SdkETihztJzHBMeJPAwXx3MbmUpUsapeMy85nGqfjPnWhUEMZg1N/
if3Ia8XDn/1t0T3khM70SEzN33M5F/4fGuI7fCwsNHQBojAWHWjAptAwCGhgKloX
p7sFGg48/yYBgJDf2SVdPj5Kh0qMSLtihd7O3zLlEgYdwIpf+29QtYxK0MZUFLjc
3LxwFZPa+uJxnNmcELeKhan0UF65MeqfwXg+ybglj4y4JnQAiJBArPyYjQrGgzUR
stpvfDhKU1qLDFlFxSlzXEOVSf89CP0UhaUw7Us7IZ4ASwB9zGm4Sv2WSeDj5xvb
12bR7wELB1eAtbNPfWbcVpwrH9nDTL9KeyXigwIDAQABo1AwTjAdBgNVHQ4EFgQU
wDw7YMsfvrAGlKSy7HHAgwyORBYwHwYDVR0jBBgwFoAUwDw7YMsfvrAGlKSy7HHA
gwyORBYwDAYDVR0TBAUwAwEB/zANBgkqhkiG9w0BAQUFAAOCAgEAbPGLz3pWcS/l
Idbj7n60gpMNDh8/UC7+wM0K73OsZKTUg6aYbw6cRVdE+SBXHNjMYOR8iBEwgaOb
FPsXIePOtOA0ow1+bS3ZD+tGLiydN9mCPDAt7LPDxZbDDk+u/e7YGJcKgFUdBSN1
sUC2pIOBy6Xa0ZHer0D7LAAkHWHg5G6Gp8VOJfac+pf7lq+vvY0wUWobOH1gQT25
681VeZfrAT/+1rMdMAVf75hIfJfAM5DqjjPhQxi4w7qF1lcb+RPlnc3BQqnSA0bX
qGGCSillDwfKSawVMoZhRUKwViFSMU1qd1K8r6vaRWtOPyM9zCA6f6MIxSaED4Hv
a0ifVxhXveFirdKBA91X+7q6RIU3UccdVAbwk7uB7TIDk/FTnhC7+zkGfBOYguko
ddwpPh7bs/nFHrv134CqaMmVIrI1ehiY0JCyrC2uKlZaWSZU/0p2ZF1SrQy2+u6Z
g6f757iunvxPegKZNJZRiL8D+IkEV0jKL/8L7xT2gZvkY7QP1X1DX0GtG1sHcY26
/kgHr2chJtxLgjxn07XGYqIkSAGLYGslK3YtExL3QehbO+SXNje5+YfuQFSdS8Xq
JbmgMbdClglUyTl62SigQl8p1FBvrm5eAVHnI0prcIXem9+h0RulFbYWI0pgCfrF
dZ839+AT3gmJs8cY5HLvQj5+Hmbd3s4=
-----END CERTIFICATE-----
