Certificate:
    Data:
        Version: 3 (0x2)
        Serial Number: 0 (0x0)
    Signature Algorithm: sha1WithRSAEncryption
        Issuer: C=VN, ST=Hanoi, L=Hanoi, O=UGroups JSC, OU=Domain Ureg.Asia Groups, CN=Ureg.Asia Groups JSC/emailAddress=info@ureg.asia
        Validity
            Not Before: Aug 12 09:44:03 2017 GMT
            Not After : Aug 12 09:44:03 2018 GMT
        Subject: C=VN, ST=Hanoi, L=Hanoi, O=UGroups JSC, OU=Domain Ureg.Asia Groups, CN=Ureg.Asia Groups JSC/emailAddress=info@ureg.asia
        Subject Public Key Info:
            Public Key Algorithm: rsaEncryption
                Public-Key: (4096 bit)
                Modulus:
                    00:c2:38:de:7c:d3:f0:a5:18:ea:be:d3:cc:26:34:
                    01:53:38:40:1e:2c:f8:0f:5b:fa:a2:77:6e:ce:33:
                    ac:b7:cf:74:09:9a:a3:83:66:83:01:0d:6a:7e:f0:
                    6b:56:8a:74:8f:68:91:f3:cd:da:67:50:65:fa:60:
                    32:9c:0f:ea:8b:e8:35:5f:73:70:75:6b:45:61:36:
                    54:2f:18:2d:c0:b7:cf:a9:8a:ea:5d:a0:d4:d9:cb:
                    63:16:a8:cf:7e:ff:68:1e:12:37:38:82:3b:7e:1e:
                    3d:2a:a0:e4:49:16:50:79:8f:20:bb:71:d3:1d:e9:
                    b5:34:83:1d:33:cb:b3:63:b9:d7:c6:16:8a:2b:09:
                    a1:4e:10:cc:78:6f:46:6b:e6:0f:10:39:49:1a:27:
                    3c:56:9d:e0:2a:eb:4c:e4:7e:be:3a:43:c0:23:93:
                    8c:6f:77:4f:8e:2d:eb:60:40:45:d2:e5:60:7c:64:
                    1d:9d:4a:08:78:cf:56:15:72:5d:88:b9:4c:89:e5:
                    5a:c5:d0:02:df:5c:53:99:f2:70:4e:14:0c:24:30:
                    4c:08:f6:72:32:0d:15:d2:e5:ee:cb:97:ba:4c:bc:
                    e0:f8:17:62:50:bf:10:fa:3b:59:f6:90:0d:ed:99:
                    17:9d:e1:82:98:aa:0a:e0:47:e8:be:96:48:53:ac:
                    4f:71:76:b6:6b:45:cd:ac:b2:b3:f3:f7:46:13:7b:
                    73:c5:55:ec:da:09:f9:6c:41:a6:82:21:09:ea:13:
                    55:0b:fe:3d:fb:37:c6:35:dc:2c:6b:a0:1f:34:63:
                    55:77:12:c2:4b:48:79:cd:c2:4d:4f:83:fd:22:5c:
                    a3:30:88:cb:8e:7b:2a:fc:05:9d:f9:1a:19:7e:5e:
                    0e:47:11:9d:ca:28:12:4b:98:9a:e2:e0:19:26:57:
                    0c:e2:95:64:89:2f:1c:8f:b8:bb:3b:ae:1a:53:d1:
                    02:6d:68:23:19:78:03:35:b7:f4:36:c0:f9:e6:33:
                    64:5b:ec:15:c3:05:7b:b5:02:40:81:bf:e2:a9:09:
                    51:0a:a3:0a:a4:33:15:6e:5a:54:fa:82:7e:3a:71:
                    b0:c1:db:09:94:ee:73:a3:4a:b5:8a:42:8d:f8:46:
                    51:84:4c:b2:07:d5:b8:fb:c6:6f:f6:88:8c:14:d8:
                    f8:e9:11:28:19:2a:d9:87:58:45:2b:d6:f5:b5:1e:
                    1b:96:bf:41:0c:b4:2a:27:43:eb:ac:af:ce:41:07:
                    3d:fa:db:e5:66:ff:bb:0c:13:3e:d1:15:b5:df:a6:
                    74:cf:65:64:bf:26:81:40:95:e1:c7:b6:13:fa:f9:
                    68:e6:2d:b9:04:68:0d:3b:07:18:f7:54:08:3e:05:
                    5c:7d:39
                Exponent: 65537 (0x10001)
        X509v3 extensions:
            X509v3 Subject Key Identifier: 
                C9:5D:61:39:2E:74:56:83:BD:94:91:37:16:DD:BA:7A:4F:00:6B:A9
            X509v3 Authority Key Identifier: 
                keyid:C9:5D:61:39:2E:74:56:83:BD:94:91:37:16:DD:BA:7A:4F:00:6B:A9

            X509v3 Basic Constraints: 
                CA:TRUE
    Signature Algorithm: sha1WithRSAEncryption
         63:f6:8f:87:c2:e4:65:58:be:c1:b7:a2:51:44:29:55:ac:fe:
         54:48:4d:79:99:14:3a:33:e1:cd:30:94:0f:9a:79:76:87:25:
         88:bf:f6:40:34:ec:81:75:63:da:82:f2:2e:91:9a:fe:58:e6:
         2f:71:db:64:0b:29:28:3e:0c:22:7c:b3:7c:5e:66:5c:4c:86:
         ad:51:f7:c4:31:ed:55:ce:6a:8b:0c:c1:ac:83:bd:50:e6:9e:
         6a:70:bf:fd:a4:a1:46:70:c7:ce:e4:09:73:ad:bf:d6:d9:47:
         11:03:a7:ea:9a:40:d3:ce:62:66:ff:76:a1:ce:34:24:33:39:
         e8:05:9e:f9:c5:fd:0d:1a:db:f4:65:ba:2d:28:a2:c5:81:57:
         88:94:fa:bb:72:3d:92:08:ba:26:39:48:67:b1:32:17:0d:c9:
         73:8b:ae:dc:81:9a:dd:3f:bc:5a:2f:b7:be:6f:2c:85:37:92:
         76:bf:f1:c3:f7:a3:0b:83:7a:42:e0:a0:9a:a8:17:51:d8:91:
         8b:90:60:86:5c:b3:46:71:8c:7c:cd:35:48:fc:c6:29:fc:8a:
         52:63:a7:96:42:3e:29:60:b2:ab:0d:44:ab:e2:c5:b7:f5:fe:
         66:b8:b4:fd:71:dc:5f:13:55:25:f8:b8:cf:9a:05:9e:49:2f:
         e6:f7:8b:1c:ba:e3:f8:b7:55:ff:d0:0f:e1:75:10:0f:be:f1:
         0a:af:bb:59:66:3c:0d:f0:77:cc:f6:75:a2:23:bf:36:3b:eb:
         9f:95:dd:b5:37:99:d5:c7:1a:14:78:96:1a:7f:3f:af:5e:90:
         79:e4:61:1c:08:5d:c2:fe:8c:84:99:d9:9c:6b:fb:f5:cf:f4:
         c5:e4:aa:59:5a:d3:18:d2:9d:a1:69:99:8a:95:5c:f8:dc:50:
         ef:63:2b:2e:13:f1:d3:35:d9:3a:59:92:22:41:17:ee:2a:d1:
         9c:39:55:54:92:cb:9f:b7:9f:b4:a7:0c:07:6b:e8:17:69:5f:
         34:05:71:14:b3:4d:f0:a0:6b:9f:39:4e:53:0f:04:f4:4f:16:
         fb:45:8a:57:ae:59:0d:a1:0b:2b:7a:b5:1f:69:c3:56:eb:23:
         2d:0a:ab:66:23:29:9a:97:00:5a:6c:bb:fe:6e:9a:1c:13:7c:
         b1:1e:6d:9e:cb:27:0c:d5:b9:61:f3:a2:20:fa:05:f7:35:39:
         36:1d:62:cd:54:8e:0c:97:14:d9:c1:4d:d7:a7:10:d4:52:43:
         02:d6:03:9e:48:7c:f1:b8:20:1b:e1:fb:dc:a7:7c:7f:5b:f0:
         2b:90:4c:13:6b:a9:ff:b7:25:52:2a:61:77:23:ba:80:24:0c:
         2b:9d:eb:54:fc:cc:11:3c
-----BEGIN CERTIFICATE-----
MIIGEzCCA/ugAwIBAgIBADANBgkqhkiG9w0BAQUFADCBozELMAkGA1UEBhMCVk4x
DjAMBgNVBAgMBUhhbm9pMQ4wDAYDVQQHDAVIYW5vaTEUMBIGA1UECgwLVUdyb3Vw
cyBKU0MxIDAeBgNVBAsMF0RvbWFpbiBVcmVnLkFzaWEgR3JvdXBzMR0wGwYDVQQD
DBRVcmVnLkFzaWEgR3JvdXBzIEpTQzEdMBsGCSqGSIb3DQEJARYOaW5mb0B1cmVn
LmFzaWEwHhcNMTcwODEyMDk0NDAzWhcNMTgwODEyMDk0NDAzWjCBozELMAkGA1UE
BhMCVk4xDjAMBgNVBAgMBUhhbm9pMQ4wDAYDVQQHDAVIYW5vaTEUMBIGA1UECgwL
VUdyb3VwcyBKU0MxIDAeBgNVBAsMF0RvbWFpbiBVcmVnLkFzaWEgR3JvdXBzMR0w
GwYDVQQDDBRVcmVnLkFzaWEgR3JvdXBzIEpTQzEdMBsGCSqGSIb3DQEJARYOaW5m
b0B1cmVnLmFzaWEwggIiMA0GCSqGSIb3DQEBAQUAA4ICDwAwggIKAoICAQDCON58
0/ClGOq+08wmNAFTOEAeLPgPW/qid27OM6y3z3QJmqODZoMBDWp+8GtWinSPaJHz
zdpnUGX6YDKcD+qL6DVfc3B1a0VhNlQvGC3At8+piupdoNTZy2MWqM9+/2geEjc4
gjt+Hj0qoORJFlB5jyC7cdMd6bU0gx0zy7NjudfGFoorCaFOEMx4b0Zr5g8QOUka
JzxWneAq60zkfr46Q8Ajk4xvd0+OLetgQEXS5WB8ZB2dSgh4z1YVcl2IuUyJ5VrF
0ALfXFOZ8nBOFAwkMEwI9nIyDRXS5e7Ll7pMvOD4F2JQvxD6O1n2kA3tmRed4YKY
qgrgR+i+lkhTrE9xdrZrRc2ssrPz90YTe3PFVezaCflsQaaCIQnqE1UL/j37N8Y1
3CxroB80Y1V3EsJLSHnNwk1Pg/0iXKMwiMuOeyr8BZ35Ghl+Xg5HEZ3KKBJLmJri
4BkmVwzilWSJLxyPuLs7rhpT0QJtaCMZeAM1t/Q2wPnmM2Rb7BXDBXu1AkCBv+Kp
CVEKowqkMxVuWlT6gn46cbDB2wmU7nOjSrWKQo34RlGETLIH1bj7xm/2iIwU2Pjp
ESgZKtmHWEUr1vW1HhuWv0EMtConQ+usr85BBz362+Vm/7sMEz7RFbXfpnTPZWS/
JoFAleHHthP6+WjmLbkEaA07Bxj3VAg+BVx9OQIDAQABo1AwTjAdBgNVHQ4EFgQU
yV1hOS50VoO9lJE3Ft26ek8Aa6kwHwYDVR0jBBgwFoAUyV1hOS50VoO9lJE3Ft26
ek8Aa6kwDAYDVR0TBAUwAwEB/zANBgkqhkiG9w0BAQUFAAOCAgEAY/aPh8LkZVi+
wbeiUUQpVaz+VEhNeZkUOjPhzTCUD5p5docliL/2QDTsgXVj2oLyLpGa/ljmL3Hb
ZAspKD4MInyzfF5mXEyGrVH3xDHtVc5qiwzBrIO9UOaeanC//aShRnDHzuQJc62/
1tlHEQOn6ppA085iZv92oc40JDM56AWe+cX9DRrb9GW6LSiixYFXiJT6u3I9kgi6
JjlIZ7EyFw3Jc4uu3IGa3T+8Wi+3vm8shTeSdr/xw/ejC4N6QuCgmqgXUdiRi5Bg
hlyzRnGMfM01SPzGKfyKUmOnlkI+KWCyqw1Eq+LFt/X+Zri0/XHcXxNVJfi4z5oF
nkkv5veLHLrj+LdV/9AP4XUQD77xCq+7WWY8DfB3zPZ1oiO/Njvrn5XdtTeZ1cca
FHiWGn8/r16QeeRhHAhdwv6MhJnZnGv79c/0xeSqWVrTGNKdoWmZipVc+NxQ72Mr
LhPx0zXZOlmSIkEX7irRnDlVVJLLn7eftKcMB2voF2lfNAVxFLNN8KBrnzlOUw8E
9E8W+0WKV65ZDaELK3q1H2nDVusjLQqrZiMpmpcAWmy7/m6aHBN8sR5tnssnDNW5
YfOiIPoF9zU5Nh1izVSODJcU2cFN16cQ1FJDAtYDnkh88bggG+H73Kd8f1vwK5BM
E2up/7clUiphdyO6gCQMK53rVPzMETw=
-----END CERTIFICATE-----
