Certificate:
    Data:
        Version: 3 (0x2)
        Serial Number: 0 (0x0)
    Signature Algorithm: sha1WithRSAEncryption
        Issuer: C=VN, ST=Hanoi, L=Hanoi, O=UGroups JSC, OU=Domain Ureg.Asia Groups, CN=Ureg.Asia Groups JSC/emailAddress=info@ureg.asia
        Validity
            Not Before: Aug 12 05:47:15 2017 GMT
            Not After : Aug 12 05:47:15 2018 GMT
        Subject: C=VN, ST=Hanoi, L=Hanoi, O=UGroups JSC, OU=Domain Ureg.Asia Groups, CN=Ureg.Asia Groups JSC/emailAddress=info@ureg.asia
        Subject Public Key Info:
            Public Key Algorithm: rsaEncryption
                Public-Key: (4096 bit)
                Modulus:
                    00:d9:71:a6:7d:20:b6:9e:ec:51:71:8c:82:62:66:
                    62:58:6b:61:c8:27:7e:f0:bb:e9:af:d1:63:63:d4:
                    41:19:fb:e6:77:59:da:da:a0:e5:3c:d9:1f:19:32:
                    74:96:c3:8a:3a:52:6e:17:6f:86:4e:95:9e:89:92:
                    ae:a9:d7:9e:c9:a4:ec:77:a3:91:de:0f:53:6e:0c:
                    90:c0:25:e4:35:d5:35:2c:5d:f2:ba:e2:5d:f1:f8:
                    97:9d:62:ab:50:89:d0:8c:d9:b8:e2:2b:96:7d:73:
                    1a:35:2a:4c:c1:d4:54:e9:63:dc:72:46:83:0e:e2:
                    32:b4:4c:c2:a7:ef:b8:27:82:ea:62:8c:24:57:86:
                    99:36:c6:74:9d:1e:c6:22:6f:e9:c3:6b:aa:63:a5:
                    15:7a:b8:27:7e:8d:9c:6d:5a:82:1f:3e:29:74:7e:
                    af:64:92:db:bf:e8:83:c0:70:cf:8b:58:d7:5d:7c:
                    21:e6:3d:a7:03:29:64:f9:c0:c8:16:bc:9c:bb:dc:
                    ab:e7:ea:62:70:49:6e:cc:b8:f4:96:32:dd:4e:79:
                    f4:24:45:8c:e8:eb:66:b4:9e:bf:d2:67:78:fe:34:
                    5c:51:7c:58:88:c1:e1:31:5e:c1:f1:d4:74:e2:e9:
                    99:72:c1:3f:02:d6:5e:e9:c8:e6:0f:40:8f:3d:58:
                    ea:7a:7e:17:18:4d:cc:d1:10:b4:a7:45:4c:c6:33:
                    5b:9c:38:3e:0d:10:d9:93:67:cf:f0:3d:56:9e:9e:
                    bb:cc:01:4a:ba:ec:75:d0:74:5d:31:fa:a6:ff:30:
                    df:a5:20:e8:0d:c4:e2:46:b5:75:99:e6:a7:6e:4f:
                    d7:ba:f2:f5:44:98:ef:03:2d:04:db:fd:91:5d:27:
                    c4:9d:2c:41:bc:40:0e:4f:59:eb:65:66:41:97:01:
                    a9:e0:b5:33:27:8c:f8:d0:d2:e9:b7:a9:3c:09:0c:
                    05:de:b5:5a:4f:39:b8:6d:56:04:55:2b:b2:31:f6:
                    9e:25:ea:ba:08:6d:85:c4:92:c5:76:bc:9a:51:21:
                    3a:3f:f3:1b:6d:3a:3c:3c:8d:5f:85:8d:e4:93:b8:
                    5f:14:20:77:6c:fd:75:c0:3b:72:d7:2e:49:b0:15:
                    e2:3a:ee:c2:31:0c:d8:bb:e3:92:bf:a2:a9:bd:54:
                    b0:90:b8:9f:98:81:45:d6:52:9e:39:ef:e7:78:1b:
                    68:5b:0c:f2:18:c4:e0:87:1d:2e:66:8e:34:2d:45:
                    5a:93:63:d8:75:31:fb:85:07:15:15:94:68:ba:74:
                    62:c2:dd:96:63:98:c6:f8:5f:12:36:df:7f:3d:f4:
                    3f:41:2d:6e:5c:76:81:67:28:f7:76:00:ce:c5:54:
                    3f:c3:ad
                Exponent: 65537 (0x10001)
        X509v3 extensions:
            X509v3 Subject Key Identifier: 
                42:90:10:1E:BC:5C:E0:83:57:51:D0:37:B4:39:8F:13:01:A1:37:40
            X509v3 Authority Key Identifier: 
                keyid:42:90:10:1E:BC:5C:E0:83:57:51:D0:37:B4:39:8F:13:01:A1:37:40

            X509v3 Basic Constraints: 
                CA:TRUE
    Signature Algorithm: sha1WithRSAEncryption
         9c:40:46:87:d9:22:89:4a:e1:dd:70:95:c2:11:d9:dc:50:32:
         3f:aa:52:56:ae:b8:1d:ca:78:f5:f9:59:12:6f:49:2e:07:da:
         1b:69:62:80:0a:30:49:e4:b1:cf:37:0b:45:8f:ec:86:ae:37:
         2c:82:4e:7e:b3:10:15:ed:d9:6f:10:e8:a9:d6:15:75:0f:f1:
         ab:60:cf:0e:64:c8:b3:c5:ef:1a:d7:7f:8d:ca:e2:fc:c1:53:
         03:f6:6d:11:df:e7:90:38:c7:b6:78:ac:c2:ba:b2:4e:b5:df:
         69:51:4c:89:e0:99:d7:10:79:cc:9b:e5:b1:97:da:7c:ac:fe:
         00:e7:31:4b:7a:53:d6:59:11:df:fb:9c:96:27:34:fa:30:de:
         3a:b0:cb:cb:80:76:b7:29:0e:82:27:03:30:7c:ea:dc:0b:62:
         8d:4c:3e:25:a9:24:16:29:c6:2e:0b:8c:48:32:fd:4c:e5:2e:
         c7:3a:20:4e:b3:c5:0b:b6:c5:99:c5:73:fb:56:ad:68:16:08:
         c4:13:66:aa:5e:d4:aa:c9:52:6e:71:a8:82:a9:f0:a4:95:88:
         a1:26:1c:7c:c6:cd:3b:ef:97:06:e1:9b:98:1d:fe:5f:53:d4:
         b8:c0:1f:9b:88:de:5c:b4:ba:78:ca:db:e5:fd:1e:88:03:64:
         2c:7b:09:ad:81:16:b7:1d:94:53:9f:eb:81:2d:7b:58:f1:8c:
         3a:55:97:16:2d:40:85:53:49:40:19:e8:de:99:4e:4a:f9:f7:
         61:1d:80:ee:a4:59:cd:ed:27:ce:21:87:5c:75:98:f3:b2:1f:
         7e:c0:f3:48:81:d5:3b:d7:92:d9:e0:b8:5c:02:cf:0a:f1:a4:
         9f:0c:5c:d8:81:aa:99:7b:1e:78:6d:33:30:4d:c2:2e:b9:37:
         12:e1:0f:4c:97:24:75:fc:fb:00:2b:53:5b:78:56:3f:e4:a6:
         f3:9b:2e:01:b9:86:a7:53:00:05:38:20:8b:65:c7:25:f9:94:
         6c:cb:ee:ce:ff:68:9e:76:79:58:27:6b:96:8e:e2:0b:db:f5:
         64:65:4b:b8:a7:9f:b9:1d:a8:4b:10:d2:81:de:e7:b0:08:6d:
         c6:e1:74:64:74:ee:56:82:05:e5:40:fd:76:86:e3:d3:f5:a6:
         d8:a3:6a:b4:92:cc:20:cf:05:5e:f9:67:36:28:5d:4a:9f:46:
         93:e5:50:90:9d:2c:e6:99:dd:7b:7a:78:51:f2:c2:6c:1a:db:
         43:e7:f2:c3:7b:b1:37:a9:74:4b:81:b0:40:65:61:dc:9b:9d:
         bb:98:1f:36:ad:48:f8:70:9c:22:17:12:a8:42:e7:2d:58:d7:
         27:a4:78:d7:f5:69:85:e2
-----BEGIN CERTIFICATE-----
MIIGEzCCA/ugAwIBAgIBADANBgkqhkiG9w0BAQUFADCBozELMAkGA1UEBhMCVk4x
DjAMBgNVBAgMBUhhbm9pMQ4wDAYDVQQHDAVIYW5vaTEUMBIGA1UECgwLVUdyb3Vw
cyBKU0MxIDAeBgNVBAsMF0RvbWFpbiBVcmVnLkFzaWEgR3JvdXBzMR0wGwYDVQQD
DBRVcmVnLkFzaWEgR3JvdXBzIEpTQzEdMBsGCSqGSIb3DQEJARYOaW5mb0B1cmVn
LmFzaWEwHhcNMTcwODEyMDU0NzE1WhcNMTgwODEyMDU0NzE1WjCBozELMAkGA1UE
BhMCVk4xDjAMBgNVBAgMBUhhbm9pMQ4wDAYDVQQHDAVIYW5vaTEUMBIGA1UECgwL
VUdyb3VwcyBKU0MxIDAeBgNVBAsMF0RvbWFpbiBVcmVnLkFzaWEgR3JvdXBzMR0w
GwYDVQQDDBRVcmVnLkFzaWEgR3JvdXBzIEpTQzEdMBsGCSqGSIb3DQEJARYOaW5m
b0B1cmVnLmFzaWEwggIiMA0GCSqGSIb3DQEBAQUAA4ICDwAwggIKAoICAQDZcaZ9
ILae7FFxjIJiZmJYa2HIJ37wu+mv0WNj1EEZ++Z3WdraoOU82R8ZMnSWw4o6Um4X
b4ZOlZ6Jkq6p157JpOx3o5HeD1NuDJDAJeQ11TUsXfK64l3x+JedYqtQidCM2bji
K5Z9cxo1KkzB1FTpY9xyRoMO4jK0TMKn77gngupijCRXhpk2xnSdHsYib+nDa6pj
pRV6uCd+jZxtWoIfPil0fq9kktu/6IPAcM+LWNddfCHmPacDKWT5wMgWvJy73Kvn
6mJwSW7MuPSWMt1OefQkRYzo62a0nr/SZ3j+NFxRfFiIweExXsHx1HTi6ZlywT8C
1l7pyOYPQI89WOp6fhcYTczRELSnRUzGM1ucOD4NENmTZ8/wPVaenrvMAUq67HXQ
dF0x+qb/MN+lIOgNxOJGtXWZ5qduT9e68vVEmO8DLQTb/ZFdJ8SdLEG8QA5PWetl
ZkGXAangtTMnjPjQ0um3qTwJDAXetVpPObhtVgRVK7Ix9p4l6roIbYXEksV2vJpR
ITo/8xttOjw8jV+FjeSTuF8UIHds/XXAO3LXLkmwFeI67sIxDNi745K/oqm9VLCQ
uJ+YgUXWUp457+d4G2hbDPIYxOCHHS5mjjQtRVqTY9h1MfuFBxUVlGi6dGLC3ZZj
mMb4XxI233899D9BLW5cdoFnKPd2AM7FVD/DrQIDAQABo1AwTjAdBgNVHQ4EFgQU
QpAQHrxc4INXUdA3tDmPEwGhN0AwHwYDVR0jBBgwFoAUQpAQHrxc4INXUdA3tDmP
EwGhN0AwDAYDVR0TBAUwAwEB/zANBgkqhkiG9w0BAQUFAAOCAgEAnEBGh9kiiUrh
3XCVwhHZ3FAyP6pSVq64Hcp49flZEm9JLgfaG2ligAowSeSxzzcLRY/shq43LIJO
frMQFe3ZbxDoqdYVdQ/xq2DPDmTIs8XvGtd/jcri/MFTA/ZtEd/nkDjHtniswrqy
TrXfaVFMieCZ1xB5zJvlsZfafKz+AOcxS3pT1lkR3/uclic0+jDeOrDLy4B2tykO
gicDMHzq3AtijUw+JakkFinGLguMSDL9TOUuxzogTrPFC7bFmcVz+1ataBYIxBNm
ql7UqslSbnGogqnwpJWIoSYcfMbNO++XBuGbmB3+X1PUuMAfm4jeXLS6eMrb5f0e
iANkLHsJrYEWtx2UU5/rgS17WPGMOlWXFi1AhVNJQBno3plOSvn3YR2A7qRZze0n
ziGHXHWY87IffsDzSIHVO9eS2eC4XALPCvGknwxc2IGqmXseeG0zME3CLrk3EuEP
TJckdfz7ACtTW3hWP+Sm85suAbmGp1MABTggi2XHJfmUbMvuzv9onnZ5WCdrlo7i
C9v1ZGVLuKefuR2oSxDSgd7nsAhtxuF0ZHTuVoIF5UD9dobj0/Wm2KNqtJLMIM8F
XvlnNihdSp9Gk+VQkJ0s5pnde3p4UfLCbBrbQ+fyw3uxN6l0S4GwQGVh3Judu5gf
Nq1I+HCcIhcSqELnLVjXJ6R41/VpheI=
-----END CERTIFICATE-----
