Certificate:
    Data:
        Version: 3 (0x2)
        Serial Number: 0 (0x0)
    Signature Algorithm: sha1WithRSAEncryption
        Issuer: C=VN, ST=Hanoi, L=Hanoi, O=UGroups JSC, OU=Domain Ureg.Asia Groups, CN=Ureg.Asia Groups JSC/emailAddress=info@ureg.asia
        Validity
            Not Before: Aug 12 05:51:15 2017 GMT
            Not After : Aug 12 05:51:15 2018 GMT
        Subject: C=VN, ST=Hanoi, L=Hanoi, O=UGroups JSC, OU=Domain Ureg.Asia Groups, CN=Ureg.Asia Groups JSC/emailAddress=info@ureg.asia
        Subject Public Key Info:
            Public Key Algorithm: rsaEncryption
                Public-Key: (4096 bit)
                Modulus:
                    00:cf:a5:a3:cb:ed:b1:5f:58:3c:52:cc:3b:89:93:
                    c1:6f:59:0a:51:48:d1:b6:5d:db:dd:49:5d:50:13:
                    5f:8c:63:12:d2:8c:6d:a2:28:b8:a5:ab:e1:c1:95:
                    67:21:32:a9:92:1a:c1:41:47:6a:1a:f6:8d:55:36:
                    0f:65:c7:39:c1:9d:56:48:76:01:0d:3f:13:80:bb:
                    82:e8:18:84:e0:8f:ee:2d:e4:15:41:b5:91:27:89:
                    b2:43:68:2c:64:bb:4b:b4:df:c6:d3:d0:76:47:5c:
                    19:b2:29:72:2e:47:58:10:c4:35:2f:0a:aa:6b:77:
                    12:df:d1:e2:ff:57:0f:59:e9:cb:4a:c2:b1:c2:88:
                    c0:69:7d:49:92:2f:ab:0e:58:c2:a9:f5:5c:18:ee:
                    27:0b:56:00:81:b1:21:7f:50:eb:23:82:2a:c9:d5:
                    86:61:c0:80:65:2a:bd:0e:ab:b0:39:e1:c8:22:89:
                    bd:6f:b1:f8:64:6d:b1:c6:a7:ea:71:ce:f2:d9:9f:
                    99:be:42:c8:56:66:54:4a:aa:33:67:85:ad:ed:ef:
                    91:28:10:ec:a5:f8:06:70:63:cc:c5:aa:3c:23:0f:
                    c0:20:37:3c:f2:34:bc:7e:bd:11:5e:d0:2a:af:38:
                    33:31:f6:46:ab:97:10:91:6e:1d:94:64:40:0c:6a:
                    8f:fe:76:b1:57:a1:5a:1f:56:9a:b7:a5:2d:68:c1:
                    b7:f6:15:78:bb:97:1c:06:a9:ec:30:b5:f6:e8:e7:
                    6d:c9:39:ae:a4:d9:17:e8:cd:d6:33:a6:3b:1c:e2:
                    82:64:cf:b4:8d:c4:65:9b:b4:eb:c4:1b:77:31:4c:
                    2f:d7:f5:89:05:3c:09:f2:13:27:06:4d:e6:06:79:
                    88:d9:0e:6f:f4:ff:f9:b9:ae:a5:f0:21:c3:c2:b1:
                    ec:78:db:18:1e:d4:b8:aa:8c:ec:77:28:39:83:dd:
                    de:57:c3:ac:45:00:25:eb:ca:f5:6b:83:6b:af:81:
                    fa:5c:5d:e7:43:c0:6f:88:5c:fd:66:26:61:ca:96:
                    b7:b5:5e:32:14:26:49:69:1e:2f:3d:c3:97:6a:5e:
                    cc:42:36:20:cd:fd:05:28:28:57:c8:e3:a8:11:ea:
                    5d:06:e2:6c:ea:cf:ef:e6:84:33:4c:7e:49:b2:84:
                    a9:c3:37:20:63:bf:a9:42:44:0e:86:f9:fc:55:45:
                    7b:1e:88:2c:03:7d:aa:4b:e9:bb:60:30:1a:ce:b7:
                    44:5b:68:29:d3:05:da:41:e2:cd:ae:18:12:3f:ae:
                    af:c3:8f:89:bb:13:b6:00:1d:62:da:0f:8a:4f:93:
                    99:ce:74:2a:3a:b1:e7:88:f0:97:05:bc:bc:ef:b2:
                    72:1d:bd
                Exponent: 65537 (0x10001)
        X509v3 extensions:
            X509v3 Subject Key Identifier: 
                29:9E:72:16:13:D7:F4:84:03:C9:B5:08:4A:54:37:73:4A:10:1F:11
            X509v3 Authority Key Identifier: 
                keyid:29:9E:72:16:13:D7:F4:84:03:C9:B5:08:4A:54:37:73:4A:10:1F:11

            X509v3 Basic Constraints: 
                CA:TRUE
    Signature Algorithm: sha1WithRSAEncryption
         63:3f:e1:37:13:20:25:92:6b:7c:c0:2e:1f:8a:a2:d6:aa:4f:
         3d:d6:0f:b9:d8:6b:4c:ef:d9:d9:bb:f3:eb:0f:ae:23:a4:3a:
         91:ff:05:20:2e:17:57:5b:fc:30:25:7f:ce:08:af:01:db:6c:
         ca:cf:6d:dd:3c:93:a7:c8:3a:14:6e:11:75:5f:e1:17:0a:ca:
         d1:46:9e:3e:0f:f5:83:ee:d6:3d:52:af:1a:81:1d:68:61:97:
         3f:9c:2c:c3:59:bf:41:2a:da:d8:68:75:ac:0f:5e:c2:fe:c1:
         19:f3:b8:ae:ad:eb:7c:44:f6:0e:f3:91:04:0d:c1:cb:bd:40:
         a5:ac:43:9d:b8:8f:a2:0c:f8:0d:77:ec:3a:6c:52:d2:d0:62:
         97:fe:a4:50:22:96:d4:86:dd:0f:94:08:e1:a3:a1:07:31:2f:
         f7:b1:28:15:ea:ca:e2:d7:f9:65:a0:ed:2e:e1:85:d6:74:86:
         17:7d:b5:2d:ca:f3:7d:e1:48:82:9d:ce:5b:77:7b:87:96:b4:
         45:f5:7c:4e:0a:eb:db:22:ba:da:32:be:ab:7b:de:ec:1a:0c:
         07:62:55:2a:9a:d4:9d:91:74:e4:da:40:1c:eb:6c:0b:4c:29:
         38:b1:61:f0:23:7c:73:da:a6:1a:94:f5:dd:91:24:92:13:d0:
         a8:b3:5e:60:19:ee:27:da:a6:40:8e:61:89:3b:0b:3a:81:bb:
         ca:94:78:71:3d:1a:68:a6:f6:f8:ce:04:2f:f3:8d:82:6b:f2:
         a0:4e:5f:99:9a:48:ad:6d:93:86:1e:36:4b:fa:0c:00:4a:59:
         f4:0e:e7:69:af:05:19:c9:42:31:33:d6:dd:e4:76:22:c0:9d:
         e1:20:da:49:1c:15:75:ad:26:ce:de:a2:89:64:57:1b:23:75:
         c4:c3:5d:fe:78:9d:6f:6a:b6:a0:d9:d6:02:97:29:15:e3:b8:
         23:44:75:9e:a1:c7:f7:bf:f7:89:11:53:54:99:9b:4d:cf:56:
         ee:d7:b1:c9:4b:0f:43:91:da:51:67:ed:95:90:90:d5:8f:e8:
         78:dc:a7:a1:df:25:1f:ee:d5:c4:d7:4f:0b:4a:8e:5f:10:9b:
         8b:83:09:ef:74:b2:9a:44:f8:c8:84:0a:eb:be:ec:d6:e3:b9:
         3c:87:ed:92:b5:01:6d:1b:9c:05:45:2d:b2:b5:55:c9:fe:c1:
         a7:67:72:2a:7b:92:d0:86:0e:84:60:c4:a8:c0:20:a3:de:95:
         26:4d:1c:79:b4:70:b5:9c:f0:1f:45:b9:09:9f:b4:3e:10:21:
         3c:d4:bb:16:b8:29:c3:28:a2:6b:b6:3e:8e:97:bd:2d:9e:fc:
         1a:6a:84:46:49:f5:ef:c2
-----BEGIN CERTIFICATE-----
MIIGEzCCA/ugAwIBAgIBADANBgkqhkiG9w0BAQUFADCBozELMAkGA1UEBhMCVk4x
DjAMBgNVBAgMBUhhbm9pMQ4wDAYDVQQHDAVIYW5vaTEUMBIGA1UECgwLVUdyb3Vw
cyBKU0MxIDAeBgNVBAsMF0RvbWFpbiBVcmVnLkFzaWEgR3JvdXBzMR0wGwYDVQQD
DBRVcmVnLkFzaWEgR3JvdXBzIEpTQzEdMBsGCSqGSIb3DQEJARYOaW5mb0B1cmVn
LmFzaWEwHhcNMTcwODEyMDU1MTE1WhcNMTgwODEyMDU1MTE1WjCBozELMAkGA1UE
BhMCVk4xDjAMBgNVBAgMBUhhbm9pMQ4wDAYDVQQHDAVIYW5vaTEUMBIGA1UECgwL
VUdyb3VwcyBKU0MxIDAeBgNVBAsMF0RvbWFpbiBVcmVnLkFzaWEgR3JvdXBzMR0w
GwYDVQQDDBRVcmVnLkFzaWEgR3JvdXBzIEpTQzEdMBsGCSqGSIb3DQEJARYOaW5m
b0B1cmVnLmFzaWEwggIiMA0GCSqGSIb3DQEBAQUAA4ICDwAwggIKAoICAQDPpaPL
7bFfWDxSzDuJk8FvWQpRSNG2XdvdSV1QE1+MYxLSjG2iKLilq+HBlWchMqmSGsFB
R2oa9o1VNg9lxznBnVZIdgENPxOAu4LoGITgj+4t5BVBtZEnibJDaCxku0u038bT
0HZHXBmyKXIuR1gQxDUvCqprdxLf0eL/Vw9Z6ctKwrHCiMBpfUmSL6sOWMKp9VwY
7icLVgCBsSF/UOsjgirJ1YZhwIBlKr0Oq7A54cgiib1vsfhkbbHGp+pxzvLZn5m+
QshWZlRKqjNnha3t75EoEOyl+AZwY8zFqjwjD8AgNzzyNLx+vRFe0CqvODMx9kar
lxCRbh2UZEAMao/+drFXoVofVpq3pS1owbf2FXi7lxwGqewwtfbo523JOa6k2Rfo
zdYzpjsc4oJkz7SNxGWbtOvEG3cxTC/X9YkFPAnyEycGTeYGeYjZDm/0//m5rqXw
IcPCsex42xge1LiqjOx3KDmD3d5Xw6xFACXryvVrg2uvgfpcXedDwG+IXP1mJmHK
lre1XjIUJklpHi89w5dqXsxCNiDN/QUoKFfI46gR6l0G4mzqz+/mhDNMfkmyhKnD
NyBjv6lCRA6G+fxVRXseiCwDfapL6btgMBrOt0RbaCnTBdpB4s2uGBI/rq/Dj4m7
E7YAHWLaD4pPk5nOdCo6seeI8JcFvLzvsnIdvQIDAQABo1AwTjAdBgNVHQ4EFgQU
KZ5yFhPX9IQDybUISlQ3c0oQHxEwHwYDVR0jBBgwFoAUKZ5yFhPX9IQDybUISlQ3
c0oQHxEwDAYDVR0TBAUwAwEB/zANBgkqhkiG9w0BAQUFAAOCAgEAYz/hNxMgJZJr
fMAuH4qi1qpPPdYPudhrTO/Z2bvz6w+uI6Q6kf8FIC4XV1v8MCV/zgivAdtsys9t
3TyTp8g6FG4RdV/hFwrK0UaePg/1g+7WPVKvGoEdaGGXP5wsw1m/QSra2Gh1rA9e
wv7BGfO4rq3rfET2DvORBA3By71ApaxDnbiPogz4DXfsOmxS0tBil/6kUCKW1Ibd
D5QI4aOhBzEv97EoFerK4tf5ZaDtLuGF1nSGF321LcrzfeFIgp3OW3d7h5a0RfV8
Tgrr2yK62jK+q3ve7BoMB2JVKprUnZF05NpAHOtsC0wpOLFh8CN8c9qmGpT13ZEk
khPQqLNeYBnuJ9qmQI5hiTsLOoG7ypR4cT0aaKb2+M4EL/ONgmvyoE5fmZpIrW2T
hh42S/oMAEpZ9A7naa8FGclCMTPW3eR2IsCd4SDaSRwVda0mzt6iiWRXGyN1xMNd
/nidb2q2oNnWApcpFeO4I0R1nqHH97/3iRFTVJmbTc9W7texyUsPQ5HaUWftlZCQ
1Y/oeNynod8lH+7VxNdPC0qOXxCbi4MJ73SymkT4yIQK677s1uO5PIftkrUBbRuc
BUUtsrVVyf7Bp2dyKnuS0IYOhGDEqMAgo96VJk0cebRwtZzwH0W5CZ+0PhAhPNS7
Frgpwyiia7Y+jpe9LZ78GmqERkn178I=
-----END CERTIFICATE-----
