Certificate:
    Data:
        Version: 3 (0x2)
        Serial Number: 0 (0x0)
    Signature Algorithm: sha1WithRSAEncryption
        Issuer: C=VN, ST=Hanoi, L=Hanoi, O=UGroups JSC, OU=Domain Ureg.Asia Groups, CN=Ureg.Asia Groups JSC/emailAddress=info@ureg.asia
        Validity
            Not Before: Aug 12 09:49:33 2017 GMT
            Not After : Aug 12 09:49:33 2018 GMT
        Subject: C=VN, ST=Hanoi, L=Hanoi, O=UGroups JSC, OU=Domain Ureg.Asia Groups, CN=Ureg.Asia Groups JSC/emailAddress=info@ureg.asia
        Subject Public Key Info:
            Public Key Algorithm: rsaEncryption
                Public-Key: (4096 bit)
                Modulus:
                    00:cb:11:0a:eb:f6:11:3f:7b:2d:cb:26:58:0e:f8:
                    d4:ed:17:68:aa:8f:8b:e8:7c:61:0c:31:30:8c:99:
                    ed:fa:c5:ee:a1:56:7e:4a:89:85:ba:79:15:dc:44:
                    df:53:f3:cc:2c:9f:33:19:06:40:66:9f:3c:98:ba:
                    f7:45:55:5e:ff:ea:fa:dc:41:5b:0c:68:84:34:fe:
                    59:a1:c4:e7:a3:20:7d:df:0f:03:11:2b:a8:0a:eb:
                    84:a0:0c:9a:22:c0:45:35:ac:12:54:eb:2f:4d:3e:
                    88:7d:d8:df:55:3f:c7:23:49:57:8f:d8:d0:c0:f0:
                    0d:5f:d6:c7:b6:47:3f:f6:3d:d8:ba:6b:8c:af:4e:
                    67:46:14:e6:2f:4d:ed:f9:53:dd:1d:e5:50:5e:cc:
                    a0:af:d5:5b:d0:dc:f5:ce:82:64:d1:a6:df:41:08:
                    7d:88:72:bb:67:e7:bb:9e:a2:f0:3e:b0:c5:2b:e9:
                    ad:2c:8a:a1:47:31:2a:80:9b:a5:2c:7b:ea:5d:35:
                    34:ff:00:e0:dc:88:f9:5d:8f:96:bc:95:8f:98:b7:
                    8a:8e:9c:aa:86:79:e4:95:04:88:5b:4c:b3:48:bc:
                    5b:19:30:e9:48:8a:23:a5:2e:0f:34:c5:f5:5c:cc:
                    0e:88:35:f6:50:01:b4:ac:8c:5e:84:c1:59:c5:aa:
                    02:1d:32:45:7e:85:be:88:49:1e:f8:f6:b3:83:2f:
                    68:e5:26:a2:24:61:21:d9:d6:f0:aa:a0:c6:96:a8:
                    45:d0:ec:c2:7a:a2:2b:0a:1a:4f:4d:c7:1c:9e:07:
                    88:a2:f8:29:e2:26:61:6d:0e:12:d0:2d:98:59:15:
                    d3:c0:b0:d3:ae:43:93:e3:79:63:18:ef:77:ef:fc:
                    22:ec:f1:ab:a2:6d:65:12:93:9e:ba:1f:3c:eb:92:
                    16:c3:71:17:9c:69:2b:9c:5d:19:c7:f0:86:3d:fe:
                    6d:b4:56:56:b6:d1:0b:03:24:d8:d0:0d:24:eb:26:
                    79:e5:8b:a1:22:7b:a8:99:f3:cf:80:9f:aa:43:71:
                    30:08:0d:c6:d9:71:54:f3:d8:1c:8d:5a:6c:74:b5:
                    a1:e9:5a:e7:c1:83:c5:67:f1:a2:50:96:a2:60:52:
                    db:6f:ec:70:b0:64:09:77:7e:29:bb:5d:9a:5b:b4:
                    9e:b3:c7:62:ee:57:29:78:7a:10:d5:dc:cb:3a:71:
                    23:e1:31:26:24:29:63:be:dc:48:fa:db:c5:7f:b5:
                    84:68:aa:a1:e3:34:bd:99:ec:1a:24:f8:99:20:69:
                    fb:5a:ba:08:5c:13:d8:87:83:55:3c:57:1b:31:a2:
                    31:e9:eb:29:5a:96:00:bb:e9:bc:80:2a:11:1a:68:
                    44:14:cb
                Exponent: 65537 (0x10001)
        X509v3 extensions:
            X509v3 Subject Key Identifier: 
                3D:91:E4:A7:55:C2:93:5E:8B:B9:C4:E8:42:03:5B:F7:CE:B4:B3:79
            X509v3 Authority Key Identifier: 
                keyid:3D:91:E4:A7:55:C2:93:5E:8B:B9:C4:E8:42:03:5B:F7:CE:B4:B3:79

            X509v3 Basic Constraints: 
                CA:TRUE
    Signature Algorithm: sha1WithRSAEncryption
         c6:78:56:63:1e:e7:57:ee:be:e5:24:d4:24:0e:40:fb:19:54:
         7d:ae:12:83:da:df:2d:f9:ef:ef:7e:ba:06:1b:d0:cd:03:7c:
         bf:c9:a1:4a:0d:af:3c:76:c4:ee:eb:5e:24:4d:26:36:5c:a8:
         c2:91:92:69:bf:7d:8b:7e:e7:07:6e:48:10:ee:ce:43:0e:9b:
         30:a1:ff:47:31:94:d9:0a:00:d3:2d:86:1e:d9:5d:09:95:8d:
         8e:18:fe:a1:2b:a9:e0:b9:28:74:c0:26:f4:4d:38:f8:44:e0:
         da:c3:88:05:a3:a1:bc:ab:53:b7:f6:b7:16:74:43:a6:5e:c2:
         c5:66:2e:05:ad:80:80:0c:49:26:85:35:9a:61:61:91:1f:ee:
         33:89:a1:ab:9f:0b:21:83:72:71:2b:9d:73:39:87:b9:c4:d6:
         c1:8f:dc:5a:e9:dd:aa:36:9a:68:1a:17:f3:76:dd:b1:db:dc:
         b6:2a:5a:ed:f6:12:18:25:7e:07:bf:61:76:a9:62:aa:b9:7f:
         2c:d3:9e:b9:5c:3a:95:f6:cf:21:2a:9c:9d:1a:84:ac:6a:05:
         f3:5d:63:36:b2:87:7d:3a:75:49:5a:86:9c:80:39:04:89:bc:
         c8:37:98:48:76:4e:d9:70:12:08:fc:62:8e:52:5c:0f:20:43:
         b3:3a:a9:de:27:a6:70:48:fd:09:9b:c6:04:d4:4b:7c:61:4c:
         c3:08:47:14:f3:a5:14:28:b5:0d:8e:48:ad:b1:91:ee:c3:bf:
         d7:a8:fe:98:50:69:4a:dc:33:12:a6:c7:07:fd:58:c9:a8:41:
         d9:84:8e:e3:8d:74:28:36:bc:01:1c:d8:98:ca:2e:f0:fe:aa:
         2e:8a:5d:24:e9:04:4e:8f:96:a7:ec:dc:39:46:2f:bc:87:e8:
         4a:80:3a:c2:14:e6:99:45:f3:11:75:74:96:da:e6:4a:f3:8a:
         06:30:9e:02:3f:6d:ac:e4:aa:67:cd:17:e6:54:22:2e:2e:89:
         8c:e4:67:f4:51:d4:9c:3c:cb:b3:75:9a:47:fe:df:7e:c7:e2:
         f4:b0:34:e1:50:12:b6:13:f8:9b:82:0f:2a:3a:3a:77:c8:74:
         b7:e9:12:1e:67:4a:30:02:b5:75:54:25:f8:bd:2d:cf:15:57:
         cb:27:09:42:7b:9a:b9:a8:6a:8a:44:f5:bd:f6:f2:bd:b0:23:
         78:d4:ad:a4:3d:ca:f1:de:bc:97:61:02:e9:dc:b3:0d:0b:7b:
         21:a2:bb:76:b0:0e:dc:f1:35:c6:f3:3f:d2:7b:e7:5c:00:e4:
         37:11:01:85:00:fb:58:d0:ea:fa:15:17:7c:7d:e0:ea:57:c7:
         5e:a8:03:9e:a7:6d:87:25
-----BEGIN CERTIFICATE-----
MIIGEzCCA/ugAwIBAgIBADANBgkqhkiG9w0BAQUFADCBozELMAkGA1UEBhMCVk4x
DjAMBgNVBAgMBUhhbm9pMQ4wDAYDVQQHDAVIYW5vaTEUMBIGA1UECgwLVUdyb3Vw
cyBKU0MxIDAeBgNVBAsMF0RvbWFpbiBVcmVnLkFzaWEgR3JvdXBzMR0wGwYDVQQD
DBRVcmVnLkFzaWEgR3JvdXBzIEpTQzEdMBsGCSqGSIb3DQEJARYOaW5mb0B1cmVn
LmFzaWEwHhcNMTcwODEyMDk0OTMzWhcNMTgwODEyMDk0OTMzWjCBozELMAkGA1UE
BhMCVk4xDjAMBgNVBAgMBUhhbm9pMQ4wDAYDVQQHDAVIYW5vaTEUMBIGA1UECgwL
VUdyb3VwcyBKU0MxIDAeBgNVBAsMF0RvbWFpbiBVcmVnLkFzaWEgR3JvdXBzMR0w
GwYDVQQDDBRVcmVnLkFzaWEgR3JvdXBzIEpTQzEdMBsGCSqGSIb3DQEJARYOaW5m
b0B1cmVnLmFzaWEwggIiMA0GCSqGSIb3DQEBAQUAA4ICDwAwggIKAoICAQDLEQrr
9hE/ey3LJlgO+NTtF2iqj4vofGEMMTCMme36xe6hVn5KiYW6eRXcRN9T88wsnzMZ
BkBmnzyYuvdFVV7/6vrcQVsMaIQ0/lmhxOejIH3fDwMRK6gK64SgDJoiwEU1rBJU
6y9NPoh92N9VP8cjSVeP2NDA8A1f1se2Rz/2Pdi6a4yvTmdGFOYvTe35U90d5VBe
zKCv1VvQ3PXOgmTRpt9BCH2Icrtn57ueovA+sMUr6a0siqFHMSqAm6Use+pdNTT/
AODciPldj5a8lY+Yt4qOnKqGeeSVBIhbTLNIvFsZMOlIiiOlLg80xfVczA6INfZQ
AbSsjF6EwVnFqgIdMkV+hb6ISR749rODL2jlJqIkYSHZ1vCqoMaWqEXQ7MJ6oisK
Gk9NxxyeB4ii+CniJmFtDhLQLZhZFdPAsNOuQ5PjeWMY73fv/CLs8auibWUSk566
HzzrkhbDcRecaSucXRnH8IY9/m20Vla20QsDJNjQDSTrJnnli6Eie6iZ88+An6pD
cTAIDcbZcVTz2ByNWmx0taHpWufBg8Vn8aJQlqJgUttv7HCwZAl3fim7XZpbtJ6z
x2LuVyl4ehDV3Ms6cSPhMSYkKWO+3Ej628V/tYRoqqHjNL2Z7Bok+Jkgaftaughc
E9iHg1U8VxsxojHp6ylalgC76byAKhEaaEQUywIDAQABo1AwTjAdBgNVHQ4EFgQU
PZHkp1XCk16LucToQgNb9860s3kwHwYDVR0jBBgwFoAUPZHkp1XCk16LucToQgNb
9860s3kwDAYDVR0TBAUwAwEB/zANBgkqhkiG9w0BAQUFAAOCAgEAxnhWYx7nV+6+
5STUJA5A+xlUfa4Sg9rfLfnv7366BhvQzQN8v8mhSg2vPHbE7uteJE0mNlyowpGS
ab99i37nB25IEO7OQw6bMKH/RzGU2QoA0y2GHtldCZWNjhj+oSup4LkodMAm9E04
+ETg2sOIBaOhvKtTt/a3FnRDpl7CxWYuBa2AgAxJJoU1mmFhkR/uM4mhq58LIYNy
cSudczmHucTWwY/cWundqjaaaBoX83bdsdvctipa7fYSGCV+B79hdqliqrl/LNOe
uVw6lfbPISqcnRqErGoF811jNrKHfTp1SVqGnIA5BIm8yDeYSHZO2XASCPxijlJc
DyBDszqp3iemcEj9CZvGBNRLfGFMwwhHFPOlFCi1DY5IrbGR7sO/16j+mFBpStwz
EqbHB/1YyahB2YSO4410KDa8ARzYmMou8P6qLopdJOkETo+Wp+zcOUYvvIfoSoA6
whTmmUXzEXV0ltrmSvOKBjCeAj9trOSqZ80X5lQiLi6JjORn9FHUnDzLs3WaR/7f
fsfi9LA04VASthP4m4IPKjo6d8h0t+kSHmdKMAK1dVQl+L0tzxVXyycJQnuauahq
ikT1vfbyvbAjeNStpD3K8d68l2EC6dyzDQt7IaK7drAO3PE1xvM/0nvnXADkNxEB
hQD7WNDq+hUXfH3g6lfHXqgDnqdthyU=
-----END CERTIFICATE-----
